ccollections
defaultdict
p0
(c__builtin__
list
p1
tp2
Rp3
S'cci_pnl_600mt_2217samples_1dim_0complexity'
p4
(lp5
(I0
I1
F82.26642107963562
tp6
asS'nn_pnl_600mt_5014samples_1dim_0complexity'
p7
(lp8
(cnumpy.core.multiarray
scalar
p9
(cnumpy
dtype
p10
(S'f8'
p11
I0
I1
tp12
Rp13
(I3
S'<'
p14
NNNI-1
I-1
I0
tp15
bS'\xbf}\x1d8gD\xe5?'
p16
tp17
Rp18
g9
(g13
S'g\xd5\xe7j+\xf6\xa7?'
p19
tp20
Rp21
F24.737442016601562
tp22
asS'rcit_pnl_600mt_7689samples_1dim_0complexity'
p23
(lp24
(F0.0
F0.20301076071718416
F0.13867902755737305
tp25
asS'cci_pnl_600mt_7324samples_1dim_0complexity'
p26
(lp27
(I0
I0
F891.8550779819489
tp28
asS'chsic_pnl_600mt_7081samples_1dim_0complexity'
p29
(lp30
(F0.0
F0.358
F284.9642639160156
tp31
asS'cci_pnl_600mt_4770samples_1dim_0complexity'
p32
(lp33
(I0
I0
F380.85785698890686
tp34
asS'kcipt_pnl_600mt_4041samples_1dim_0complexity'
p35
(lp36
(I-3
I-3
I-3
tp37
asS'chsic_pnl_600mt_9270samples_1dim_0complexity'
p38
(lp39
(F0.0
F0.839
F328.21972703933716
tp40
asS'kcipt_pnl_600mt_766samples_1dim_0complexity'
p41
(lp42
(I-3
I-3
I-3
tp43
asS'rcit_pnl_600mt_3189samples_1dim_0complexity'
p44
(lp45
(F2.220446049250313e-16
F0.42355985544979746
F0.08674287796020508
tp46
asS'kcit_pnl_600mt_233samples_1dim_0complexity'
p47
(lp48
(F0.0016
F0.7318
F5.031225919723511
tp49
asS'kcit_pnl_600mt_2946samples_1dim_0complexity'
p50
(lp51
(F0.0
F0.5304
F674.9285130500793
tp52
asS'kcipt_pnl_600mt_4770samples_1dim_0complexity'
p53
(lp54
(I-3
I-3
I-3
tp55
asS'cci_pnl_600mt_6594samples_1dim_0complexity'
p56
(lp57
(I0
I0
F724.6102728843689
tp58
asS'nn_pnl_600mt_500samples_1dim_0complexity'
p59
(lp60
(g9
(g13
S'Zd;\xdfO\x8d\x97?'
p61
tp62
Rp63
g9
(g13
S'X\xa85\xcd;N\xed?'
p64
tp65
Rp66
F26.553858041763306
tp67
asS'chsic_pnl_600mt_733samples_1dim_0complexity'
p68
(lp69
(F0.0
F0.528
F8.105694055557251
tp70
asS'kcipt_pnl_600mt_6838samples_1dim_0complexity'
p71
(lp72
(I-3
I-3
I-3
tp73
asS'chsic_pnl_600mt_200samples_1dim_0complexity'
p74
(lp75
(F0.0
F0.868
F4.04769492149353
tp76
asS'kcipt_pnl_600mt_1487samples_1dim_0complexity'
p77
(lp78
(I-3
I-3
I-3
tp79
asS'kcipt_pnl_600mt_5743samples_1dim_0complexity'
p80
(lp81
(I-3
I-3
I-3
tp82
asS'nn_pnl_600mt_766samples_1dim_0complexity'
p83
(lp84
(g9
(g13
S'\x00\x00\x00\x00\x00\x00\x00\x00'
p85
tp86
Rp87
g9
(g13
S'sh\x91\xed|?\xeb?'
p88
tp89
Rp90
F34.436992168426514
tp91
asS'cci_pnl_600mt_9148samples_1dim_0complexity'
p92
(lp93
(I-3
I-3
I-3
tp94
asS'rcit_pnl_600mt_6594samples_1dim_0complexity'
p95
(lp96
(F1.887379141862766e-15
F0.7504222479349243
F0.13587594032287598
tp97
asS'kcit_pnl_600mt_5500samples_1dim_0complexity'
p98
(lp99
(I-3
I-3
I-3
tp100
asS'rcit_pnl_600mt_633samples_1dim_0complexity'
p101
(lp102
(F0.00854925930793693
F0.09981410207762142
F0.0527348518371582
tp103
asS'kcit_pnl_600mt_1852samples_1dim_0complexity'
p104
(lp105
(F0.0
F0.7624
F271.4271249771118
tp106
asS'cci_pnl_600mt_7203samples_1dim_0complexity'
p107
(lp108
(I0
I0
F871.2035019397736
tp109
asS'kcit_pnl_600mt_9148samples_1dim_0complexity'
p110
(lp111
(I-3
I-3
I-3
tp112
asS'rcit_pnl_600mt_7324samples_1dim_0complexity'
p113
(lp114
(F1.3322676295501878e-15
F0.37691608313248215
F0.14705514907836914
tp115
asS'nn_pnl_600mt_233samples_1dim_0complexity'
p116
(lp117
(g9
(g13
S'\xb7b\x7f\xd9=y\xea?'
p118
tp119
Rp120
g9
(g13
S'\xcc\x7fH\xbf}\x1d\xb8?'
p121
tp122
Rp123
F19.448439836502075
tp124
asS'chsic_pnl_600mt_700samples_1dim_0complexity'
p125
(lp126
(F0.0
F0.857
F7.07409405708313
tp127
asS'chsic_pnl_600mt_3554samples_1dim_0complexity'
p128
(lp129
(F0.0
F0.377
F59.390191078186035
tp130
asS'cci_pnl_600mt_1000samples_1dim_0complexity'
p131
(lp132
(I0
I1
F16.846068143844604
tp133
asS'nn_pnl_600mt_9756samples_1dim_0complexity'
p134
(lp135
(g9
(g13
S'\xd8\xf0\xf4JY\x86\xee?'
p136
tp137
Rp138
g9
(g13
S'&S\x05\xa3\x92:\xed?'
p139
tp140
Rp141
F28.220135927200317
tp142
asS'chsic_pnl_600mt_2946samples_1dim_0complexity'
p143
(lp144
(F0.0
F0.488
F52.327069997787476
tp145
asS'chsic_pnl_600mt_6838samples_1dim_0complexity'
p146
(lp147
(F0.0
F0.231
F194.85535597801208
tp148
asS'rcit_pnl_600mt_2825samples_1dim_0complexity'
p149
(lp150
(F0.0
F0.1864056328587107
F0.08156108856201172
tp151
asS'chsic_pnl_600mt_1000samples_1dim_0complexity'
p152
(lp153
(F0.0
F0.876
F9.103464841842651
tp154
asS'kcit_pnl_600mt_666samples_1dim_0complexity'
p155
(lp156
(F0.0
F0.7214
F25.08690094947815
tp157
asS'kcipt_pnl_600mt_266samples_1dim_0complexity'
p158
(lp159
(F0.5614999999999545
F0.16429999999999823
F73.09690403938293
tp160
asS'nn_pnl_600mt_6473samples_1dim_0complexity'
p161
(lp162
(g9
(g13
S'-C\x1c\xeb\xe26*?'
p163
tp164
Rp165
g9
(g13
S'\x06\x12\x14?\xc6\xdc\xcd?'
p166
tp167
Rp168
F41.26259398460388
tp169
asS'rcit_pnl_600mt_1122samples_1dim_0complexity'
p170
(lp171
(F7.00266297171126e-08
F0.4424505214241804
F0.0670619010925293
tp172
asS'kcit_pnl_600mt_8783samples_1dim_0complexity'
p173
(lp174
(I-3
I-3
I-3
tp175
asS'kcipt_pnl_600mt_2095samples_1dim_0complexity'
p176
(lp177
(I-3
I-3
I-3
tp178
asS'cci_pnl_600mt_500samples_1dim_0complexity'
p179
(lp180
(I0
I1
F4.2292139530181885
tp181
asS'kcipt_pnl_600mt_4284samples_1dim_0complexity'
p182
(lp183
(I-3
I-3
I-3
tp184
asS'cci_pnl_600mt_5500samples_1dim_0complexity'
p185
(lp186
(I0
I0
F510.97582602500916
tp187
asS'rcit_pnl_600mt_266samples_1dim_0complexity'
p188
(lp189
(F0.10799391771863542
F0.08014694195063954
F0.022940874099731445
tp190
asS'kcipt_pnl_600mt_2946samples_1dim_0complexity'
p191
(lp192
(I-3
I-3
I-3
tp193
asS'nn_pnl_600mt_4041samples_1dim_0complexity'
p194
(lp195
(g9
(g13
S'\x00\x00\x00\x00\x00\x00\x00\x00'
p196
tp197
Rp198
g9
(g13
S'\xf2\xb0Pk\x9aw\xea?'
p199
tp200
Rp201
F23.72251605987549
tp202
asS'kcipt_pnl_600mt_7081samples_1dim_0complexity'
p203
(lp204
(I-3
I-3
I-3
tp205
asS'nn_pnl_600mt_1852samples_1dim_0complexity'
p206
(lp207
(g9
(g13
S'/\xdd$\x06\x81\x95\xc3?'
p208
tp209
Rp210
g9
(g13
S'\x9d\x11\xa5\xbd\xc1\x17\xe8?'
p211
tp212
Rp213
F25.232293128967285
tp214
asS'cci_pnl_600mt_900samples_1dim_0complexity'
p215
(lp216
(I0
I0
F13.577279806137085
tp217
asS'rcit_pnl_600mt_8175samples_1dim_0complexity'
p218
(lp219
(F0.0
F0.6184453441568599
F0.14423680305480957
tp220
asS'chsic_pnl_600mt_5378samples_1dim_0complexity'
p221
(lp222
(F0.0
F0.651
F169.69039297103882
tp223
asS'nn_pnl_600mt_1000samples_1dim_0complexity'
p224
(lp225
(g9
(g13
S'-C\x1c\xeb\xe26:?'
p226
tp227
Rp228
g9
(g13
S'\x12\x83\xc0\xca\xa1E\xee?'
p229
tp230
Rp231
F32.4878990650177
tp232
asS'rcit_pnl_600mt_9391samples_1dim_0complexity'
p233
(lp234
(F0.0
F0.3173426349541286
F0.15363311767578125
tp235
asS'nn_pnl_600mt_9513samples_1dim_0complexity'
p236
(lp237
(g9
(g13
S'a2U0*\xa93?'
p238
tp239
Rp240
g9
(g13
S'X\xa85\xcd;N\xc9?'
p241
tp242
Rp243
F24.10711407661438
tp244
asS'rcit_pnl_600mt_3311samples_1dim_0complexity'
p245
(lp246
(F2.220446049250313e-16
F0.025919255621872583
F0.08750700950622559
tp247
asS'cci_pnl_600mt_3311samples_1dim_0complexity'
p248
(lp249
(I0
I0
F182.88777804374695
tp250
asS'kcit_pnl_600mt_3554samples_1dim_0complexity'
p251
(lp252
(I-3
I-3
I-3
tp253
asS'chsic_pnl_600mt_566samples_1dim_0complexity'
p254
(lp255
(F0.0
F0.006
F7.062182903289795
tp256
asS'kcit_pnl_600mt_1244samples_1dim_0complexity'
p257
(lp258
(F0.0
F0.5646
F90.20365595817566
tp259
asS'kcit_pnl_600mt_8662samples_1dim_0complexity'
p260
(lp261
(I-3
I-3
I-3
tp262
asS'kcipt_pnl_600mt_2825samples_1dim_0complexity'
p263
(lp264
(I-3
I-3
I-3
tp265
asS'rcit_pnl_600mt_1973samples_1dim_0complexity'
p266
(lp267
(F2.4424906541753444e-15
F0.35497623544174695
F0.08039712905883789
tp268
asS'cci_pnl_600mt_9756samples_1dim_0complexity'
p269
(lp270
(I-3
I-3
I-3
tp271
asS'kcit_pnl_600mt_1122samples_1dim_0complexity'
p272
(lp273
(F0.0
F0.4532
F75.17523097991943
tp274
asS'rcit_pnl_600mt_4770samples_1dim_0complexity'
p275
(lp276
(F3.9968028886505635e-15
F0.7089105728313557
F0.10091996192932129
tp277
asS'cci_pnl_600mt_4649samples_1dim_0complexity'
p278
(lp279
(I0
I1
F364.86581802368164
tp280
asS'rcit_pnl_600mt_766samples_1dim_0complexity'
p281
(lp282
(F1.1102230246251565e-16
F0.6715251413539418
F0.06984496116638184
tp283
asS'chsic_pnl_600mt_1973samples_1dim_0complexity'
p284
(lp285
(F0.0
F0.786
F18.199791193008423
tp286
asS'chsic_pnl_600mt_7446samples_1dim_0complexity'
p287
(lp288
(F0.0
F0.143
F367.0744981765747
tp289
asS'kcipt_pnl_600mt_533samples_1dim_0complexity'
p290
(lp291
(F0.04320000000000021
F0.27649999999998587
F561.578971862793
tp292
asS'chsic_pnl_600mt_1852samples_1dim_0complexity'
p293
(lp294
(F0.0
F0.9
F24.196280002593994
tp295
asS'kcipt_pnl_600mt_3311samples_1dim_0complexity'
p296
(lp297
(I-3
I-3
I-3
tp298
asS'nn_pnl_600mt_5743samples_1dim_0complexity'
p299
(lp300
(g9
(g13
S'\xfa~j\xbct\x93X?'
p301
tp302
Rp303
g9
(g13
S'\xd5\th"lx\xba?'
p304
tp305
Rp306
F21.53050994873047
tp307
asS'rcit_pnl_600mt_9270samples_1dim_0complexity'
p308
(lp309
(F0.0
F0.5639463029779404
F0.15569305419921875
tp310
asS'chsic_pnl_600mt_4770samples_1dim_0complexity'
p311
(lp312
(F0.0
F0.326
F112.55559802055359
tp313
asS'kcit_pnl_600mt_300samples_1dim_0complexity'
p314
(lp315
(F0.0
F0.0344
F5.035089015960693
tp316
asS'rcit_pnl_600mt_8662samples_1dim_0complexity'
p317
(lp318
(F0.0
F0.1840882467514532
F0.1479930877685547
tp319
asS'nn_pnl_600mt_1973samples_1dim_0complexity'
p320
(lp321
(g9
(g13
S'-C\x1c\xeb\xe26*?'
p322
tp323
Rp324
g9
(g13
S'O\xaf\x94e\x88c\xe5?'
p325
tp326
Rp327
F25.677275896072388
tp328
asS'kcit_pnl_600mt_2095samples_1dim_0complexity'
p329
(lp330
(F0.0
F0.6678
F260.44705390930176
tp331
asS'nn_pnl_600mt_900samples_1dim_0complexity'
p332
(lp333
(g9
(g13
S'-C\x1c\xeb\xe26\x1a?'
p334
tp335
Rp336
g9
(g13
S'\xd5x\xe9&1\x08\xc4?'
p337
tp338
Rp339
F26.43368101119995
tp340
asS'rcit_pnl_600mt_6959samples_1dim_0complexity'
p341
(lp342
(F0.0
F0.8197656028304574
F0.13417506217956543
tp343
asS'kcit_pnl_600mt_7567samples_1dim_0complexity'
p344
(lp345
(I-3
I-3
I-3
tp346
asS'rcit_pnl_600mt_7932samples_1dim_0complexity'
p347
(lp348
(F0.0
F0.029816637137945246
F0.13943696022033691
tp349
asS'cci_pnl_600mt_9027samples_1dim_0complexity'
p350
(lp351
(I-3
I-3
I-3
tp352
asS'kcipt_pnl_600mt_1122samples_1dim_0complexity'
p353
(lp354
(I-3
I-3
I-3
tp355
asS'kcipt_pnl_600mt_900samples_1dim_0complexity'
p356
(lp357
(I-3
I-3
I-3
tp358
asS'cci_pnl_600mt_5135samples_1dim_0complexity'
p359
(lp360
(I0
I0
F441.63729596138
tp361
asS'rcit_pnl_600mt_9027samples_1dim_0complexity'
p362
(lp363
(F6.661338147750939e-16
F0.07265165959436726
F0.16992902755737305
tp364
asS'rcit_pnl_600mt_500samples_1dim_0complexity'
p365
(lp366
(F1.975436413481635e-05
F0.8964789564295357
F0.06487703323364258
tp367
asS'kcipt_pnl_600mt_666samples_1dim_0complexity'
p368
(lp369
(F0.0
I-1
F1187.1874191761017
tp370
asS'chsic_pnl_600mt_4527samples_1dim_0complexity'
p371
(lp372
(F0.0
F0.491
F64.51743388175964
tp373
asS'nn_pnl_600mt_3311samples_1dim_0complexity'
p374
(lp375
(g9
(g13
S'a2U0*\xa93?'
p376
tp377
Rp378
g9
(g13
S'\xb7b\x7f\xd9=y\xc8?'
p379
tp380
Rp381
F24.037024974822998
tp382
asS'kcit_pnl_600mt_1609samples_1dim_0complexity'
p383
(lp384
(F0.0
F0.6534
F208.34652400016785
tp385
asS'cci_pnl_600mt_366samples_1dim_0complexity'
p386
(lp387
(I0
I1
F2.2777810096740723
tp388
asS'kcit_pnl_600mt_700samples_1dim_0complexity'
p389
(lp390
(F0.051
F0.5048
F27.093456029891968
tp391
asS'kcit_pnl_600mt_4770samples_1dim_0complexity'
p392
(lp393
(I-3
I-3
I-3
tp394
asS'kcipt_pnl_600mt_4892samples_1dim_0complexity'
p395
(lp396
(I-3
I-3
I-3
tp397
asS'nn_pnl_600mt_8175samples_1dim_0complexity'
p398
(lp399
(g9
(g13
S'a2U0*\xa93?'
p400
tp401
Rp402
g9
(g13
S'K\xc8\x07=\x9bU\xed?'
p403
tp404
Rp405
F26.294275999069214
tp406
asS'kcit_pnl_600mt_400samples_1dim_0complexity'
p407
(lp408
(F0.0
F0.215
F8.058238983154297
tp409
asS'kcit_pnl_600mt_9513samples_1dim_0complexity'
p410
(lp411
(I-3
I-3
I-3
tp412
asS'chsic_pnl_600mt_7324samples_1dim_0complexity'
p413
(lp414
(F0.0
F0.676
F262.9582920074463
tp415
asS'kcit_pnl_600mt_1730samples_1dim_0complexity'
p416
(lp417
(F0.0
F0.037
F233.38902592658997
tp418
asS'chsic_pnl_600mt_5986samples_1dim_0complexity'
p419
(lp420
(F0.0
F0.75
F158.73259496688843
tp421
asS'kcit_pnl_600mt_6351samples_1dim_0complexity'
p422
(lp423
(I-3
I-3
I-3
tp424
asS'kcipt_pnl_600mt_566samples_1dim_0complexity'
p425
(lp426
(F0.23749999999999016
F0.3006999999999832
F708.7357139587402
tp427
asS'nn_pnl_600mt_6230samples_1dim_0complexity'
p428
(lp429
(g9
(g13
S'-C\x1c\xeb\xe26\x1a?'
p430
tp431
Rp432
g9
(g13
S'\x8a\xb0\xe1\xe9\x95\xb2\xea?'
p433
tp434
Rp435
F26.451645851135254
tp436
asS'kcit_pnl_600mt_6594samples_1dim_0complexity'
p437
(lp438
(I-3
I-3
I-3
tp439
asS'nn_pnl_600mt_5986samples_1dim_0complexity'
p440
(lp441
(g9
(g13
S'\x06\x12\x14?\xc6\xdc\xa5?'
p442
tp443
Rp444
g9
(g13
S'\x88c]\xdcF\x03\xa8?'
p445
tp446
Rp447
F33.11629581451416
tp448
asS'nn_pnl_600mt_1365samples_1dim_0complexity'
p449
(lp450
(g9
(g13
S'-C\x1c\xeb\xe26\x1a?'
p451
tp452
Rp453
g9
(g13
S'U\xc1\xa8\xa4N@\xed?'
p454
tp455
Rp456
F25.636048078536987
tp457
asS'chsic_pnl_600mt_2460samples_1dim_0complexity'
p458
(lp459
(F0.0
F0.192
F26.288014888763428
tp460
asS'nn_pnl_600mt_2338samples_1dim_0complexity'
p461
(lp462
(g9
(g13
S'\xfc\xa9\xf1\xd2Mb@?'
p463
tp464
Rp465
g9
(g13
S'\xde\x93\x87\x85Z\xd3\xd0?'
p466
tp467
Rp468
F27.136946201324463
tp469
asS'kcit_pnl_600mt_4406samples_1dim_0complexity'
p470
(lp471
(I-3
I-3
I-3
tp472
asS'kcit_pnl_600mt_533samples_1dim_0complexity'
p473
(lp474
(F0.002
F0.571
F12.061398983001709
tp475
asS'kcit_pnl_600mt_6838samples_1dim_0complexity'
p476
(lp477
(I-3
I-3
I-3
tp478
asS'nn_pnl_600mt_633samples_1dim_0complexity'
p479
(lp480
(g9
(g13
S'\xf4\xfd\xd4x\xe9&\xd1?'
p481
tp482
Rp483
g9
(g13
S'\xe8j+\xf6\x97\xdd\xe5?'
p484
tp485
Rp486
F20.421612977981567
tp487
asS'nn_pnl_600mt_433samples_1dim_0complexity'
p488
(lp489
(g9
(g13
S'_\x07\xce\x19Q\xda{?'
p490
tp491
Rp492
g9
(g13
S'xz\xa5,C\x1c\xef?'
p493
tp494
Rp495
F22.102955102920532
tp496
asS'chsic_pnl_600mt_4649samples_1dim_0complexity'
p497
(lp498
(F0.0
F0.881
F95.53121399879456
tp499
asS'kcipt_pnl_600mt_6473samples_1dim_0complexity'
p500
(lp501
(I-3
I-3
I-3
tp502
asS'kcit_pnl_600mt_2825samples_1dim_0complexity'
p503
(lp504
(F0.0
F0.4412
F707.9473140239716
tp505
asS'rcit_pnl_600mt_1365samples_1dim_0complexity'
p506
(lp507
(F8.43769498715119e-15
F0.18391188715107476
F0.08243989944458008
tp508
asS'kcipt_pnl_600mt_9756samples_1dim_0complexity'
p509
(lp510
(I-3
I-3
I-3
tp511
asS'cci_pnl_600mt_333samples_1dim_0complexity'
p512
(lp513
(I0
I0
F1.889120101928711
tp514
asS'chsic_pnl_600mt_2825samples_1dim_0complexity'
p515
(lp516
(F0.0
F0.323
F44.31675386428833
tp517
asS'rcit_pnl_600mt_1730samples_1dim_0complexity'
p518
(lp519
(F0.06296338098872756
F0.11723302049252116
F0.07631516456604004
tp520
asS'chsic_pnl_600mt_8175samples_1dim_0complexity'
p521
(lp522
(F0.0
F0.303
F243.02372407913208
tp523
asS'kcit_pnl_600mt_6108samples_1dim_0complexity'
p524
(lp525
(I-3
I-3
I-3
tp526
asS'rcit_pnl_600mt_800samples_1dim_0complexity'
p527
(lp528
(F0.0
F0.7923705865286674
F0.06364607810974121
tp529
asS'rcit_pnl_600mt_5743samples_1dim_0complexity'
p530
(lp531
(F4.440892098500626e-16
F0.40561556191348125
F0.12963008880615234
tp532
asS'chsic_pnl_600mt_4892samples_1dim_0complexity'
p533
(lp534
(F0.0
F0.539
F113.56919407844543
tp535
asS'rcit_pnl_600mt_366samples_1dim_0complexity'
p536
(lp537
(F0.04230242708669896
F0.4711613581667813
F0.03146791458129883
tp538
asS'kcit_pnl_600mt_3068samples_1dim_0complexity'
p539
(lp540
(F0.0
F0.8052
F691.9488451480865
tp541
asS'kcipt_pnl_600mt_633samples_1dim_0complexity'
p542
(lp543
(F0.03620000000000001
F0.2690999999999867
F1021.0237998962402
tp544
asS'kcipt_pnl_600mt_3068samples_1dim_0complexity'
p545
(lp546
(I-3
I-3
I-3
tp547
asS'nn_pnl_600mt_2581samples_1dim_0complexity'
p548
(lp549
(g9
(g13
S'a2U0*\xa93?'
p550
tp551
Rp552
g9
(g13
S'{\x14\xaeG\xe1z\xee?'
p553
tp554
Rp555
F48.800074100494385
tp556
asS'kcipt_pnl_600mt_366samples_1dim_0complexity'
p557
(lp558
(F0.27409999999998613
F0.8160999999999264
F172.19892191886902
tp559
asS'rcit_pnl_600mt_5378samples_1dim_0complexity'
p560
(lp561
(F4.5086157030027607e-13
F0.6301283320310458
F0.11782002449035645
tp562
asS'kcipt_pnl_600mt_7811samples_1dim_0complexity'
p563
(lp564
(I-3
I-3
I-3
tp565
asS'chsic_pnl_600mt_9635samples_1dim_0complexity'
p566
(lp567
(F0.0
F0.42
F469.3883550167084
tp568
asS'nn_pnl_600mt_8297samples_1dim_0complexity'
p569
(lp570
(g9
(g13
S'\x00\x00\x00\x00\x00\x00\x00\x00'
p571
tp572
Rp573
g9
(g13
S'9EGr\xf9\x0f\xed?'
p574
tp575
Rp576
F44.79760384559631
tp577
asS'kcit_pnl_600mt_2217samples_1dim_0complexity'
p578
(lp579
(F0.0
F0.936
F329.524621963501
tp580
asS'nn_pnl_600mt_8783samples_1dim_0complexity'
p581
(lp582
(g9
(g13
S'-C\x1c\xeb\xe26*?'
p583
tp584
Rp585
g9
(g13
S'\xa9\x13\xd0D\xd8\xf0\xe4?'
p586
tp587
Rp588
F29.46372890472412
tp589
asS'kcipt_pnl_600mt_4527samples_1dim_0complexity'
p590
(lp591
(I-3
I-3
I-3
tp592
asS'nn_pnl_600mt_6959samples_1dim_0complexity'
p593
(lp594
(g9
(g13
S'H\xbf}\x1d8g\xe4?'
p595
tp596
Rp597
g9
(g13
S'3\xc4\xb1.n\xa3\xef?'
p598
tp599
Rp600
F27.41575002670288
tp601
asS'kcit_pnl_600mt_8175samples_1dim_0complexity'
p602
(lp603
(I-3
I-3
I-3
tp604
asS'kcipt_pnl_600mt_9513samples_1dim_0complexity'
p605
(lp606
(I-3
I-3
I-3
tp607
asS'rcit_pnl_600mt_3554samples_1dim_0complexity'
p608
(lp609
(F9.601479389331757e-09
F0.26902284794494125
F0.08836507797241211
tp610
asS'kcit_pnl_600mt_4892samples_1dim_0complexity'
p611
(lp612
(I-3
I-3
I-3
tp613
asS'rcit_pnl_600mt_2338samples_1dim_0complexity'
p614
(lp615
(F0.0
F0.6401249037538284
F0.09247994422912598
tp616
asS'nn_pnl_600mt_200samples_1dim_0complexity'
p617
(lp618
(g9
(g13
S'\x1aQ\xda\x1b|a\xc2?'
p619
tp620
Rp621
g9
(g13
S'\xf5\xb9\xda\x8a\xfde\xeb?'
p622
tp623
Rp624
F19.73673105239868
tp625
asS'rcit_pnl_600mt_2703samples_1dim_0complexity'
p626
(lp627
(F1.0313971898767704e-13
F0.30769541377819565
F0.08406901359558105
tp628
asS'nn_pnl_600mt_9391samples_1dim_0complexity'
p629
(lp630
(g9
(g13
S'a2U0*\xa9C?'
p631
tp632
Rp633
g9
(g13
S'u\x02\x9a\x08\x1b\x9e\xea?'
p634
tp635
Rp636
F27.495954036712646
tp637
asS'kcit_pnl_600mt_2703samples_1dim_0complexity'
p638
(lp639
(F0.0
F0.3114
F688.8959209918976
tp640
asS'cci_pnl_600mt_1122samples_1dim_0complexity'
p641
(lp642
(I0
I0
F21.021473169326782
tp643
asS'cci_pnl_600mt_7932samples_1dim_0complexity'
p644
(lp645
(I0
I0
F1053.5041480064392
tp646
asS'rcit_pnl_600mt_1609samples_1dim_0complexity'
p647
(lp648
(F6.07592319790129e-08
F0.801635033629609
F0.07239508628845215
tp649
asS'kcit_pnl_600mt_5622samples_1dim_0complexity'
p650
(lp651
(I-3
I-3
I-3
tp652
asS'nn_pnl_600mt_4770samples_1dim_0complexity'
p653
(lp654
(g9
(g13
S'\xc7\xba\xb8\x8d\x06\xf0F?'
p655
tp656
Rp657
g9
(g13
S'\xef8EGr\xf9\xcf?'
p658
tp659
Rp660
F25.915383100509644
tp661
asS'rcit_pnl_600mt_1244samples_1dim_0complexity'
p662
(lp663
(F0.0
F0.7992160306040711
F0.07069993019104004
tp664
asS'rcit_pnl_600mt_6108samples_1dim_0complexity'
p665
(lp666
(F0.0
F0.21952945094914955
F0.13037705421447754
tp667
asS'cci_pnl_600mt_4162samples_1dim_0complexity'
p668
(lp669
(I0
I0
F289.553081035614
tp670
asS'chsic_pnl_600mt_3919samples_1dim_0complexity'
p671
(lp672
(F0.0
F0.649
F104.47830200195312
tp673
asS'kcit_pnl_600mt_5014samples_1dim_0complexity'
p674
(lp675
(I-3
I-3
I-3
tp676
asS'rcit_pnl_600mt_3433samples_1dim_0complexity'
p677
(lp678
(F0.0
F0.08777265656442335
F0.11463618278503418
tp679
asS'rcit_pnl_600mt_333samples_1dim_0complexity'
p680
(lp681
(F7.543637858820063e-08
F0.5588100256160498
F0.029716014862060547
tp682
asS'kcipt_pnl_600mt_5378samples_1dim_0complexity'
p683
(lp684
(I-3
I-3
I-3
tp685
asS'rcit_pnl_600mt_666samples_1dim_0complexity'
p686
(lp687
(F0.0
F0.45295149879123064
F0.05018305778503418
tp688
asS'rcit_pnl_600mt_5135samples_1dim_0complexity'
p689
(lp690
(F2.3314683517128287e-15
F0.8141033752169418
F0.1190500259399414
tp691
asS'kcipt_pnl_600mt_866samples_1dim_0complexity'
p692
(lp693
(I-3
I-3
I-3
tp694
asS'kcipt_pnl_600mt_6716samples_1dim_0complexity'
p695
(lp696
(I-3
I-3
I-3
tp697
asS'chsic_pnl_600mt_7203samples_1dim_0complexity'
p698
(lp699
(F0.0
F0.609
F205.90081882476807
tp700
asS'cci_pnl_600mt_9270samples_1dim_0complexity'
p701
(lp702
(I-3
I-3
I-3
tp703
asS'nn_pnl_600mt_9270samples_1dim_0complexity'
p704
(lp705
(g9
(g13
S'\xfc\xa9\xf1\xd2Mb@?'
p706
tp707
Rp708
g9
(g13
S'\xa3\x92:\x01M\x84\xe5?'
p709
tp710
Rp711
F33.32161211967468
tp712
asS'cci_pnl_600mt_7567samples_1dim_0complexity'
p713
(lp714
(I0
I1
F953.9141972064972
tp715
asS'kcit_pnl_600mt_933samples_1dim_0complexity'
p716
(lp717
(F0.0
F0.2854
F50.164291858673096
tp718
asS'kcipt_pnl_600mt_7446samples_1dim_0complexity'
p719
(lp720
(I-3
I-3
I-3
tp721
asS'rcit_pnl_600mt_6473samples_1dim_0complexity'
p722
(lp723
(F2.220446049250313e-15
F0.7152566424068785
F0.12882399559020996
tp724
asS'cci_pnl_600mt_1730samples_1dim_0complexity'
p725
(lp726
(I0
I0
F50.04442000389099
tp727
asS'kcit_pnl_600mt_3676samples_1dim_0complexity'
p728
(lp729
(I-3
I-3
I-3
tp730
asS'cci_pnl_600mt_2338samples_1dim_0complexity'
p731
(lp732
(I0
I0
F92.31801319122314
tp733
asS'rcit_pnl_600mt_833samples_1dim_0complexity'
p734
(lp735
(F1.9984014443252818e-15
F0.028614982411751977
F0.06928682327270508
tp736
asS'kcipt_pnl_600mt_10000samples_1dim_0complexity'
p737
(lp738
(I-3
I-3
I-3
tp739
asS'cci_pnl_600mt_766samples_1dim_0complexity'
p740
(lp741
(I0
I1
F9.912595987319946
tp742
asS'kcit_pnl_600mt_4041samples_1dim_0complexity'
p743
(lp744
(I-3
I-3
I-3
tp745
asS'cci_pnl_600mt_3676samples_1dim_0complexity'
p746
(lp747
(I0
I1
F227.1712999343872
tp748
asS'rcit_pnl_600mt_4649samples_1dim_0complexity'
p749
(lp750
(F2.3314683517128287e-15
F0.8208050429239337
F0.13086390495300293
tp751
asS'chsic_pnl_600mt_6716samples_1dim_0complexity'
p752
(lp753
(F0.0
F0.058
F190.8258399963379
tp754
asS'rcit_pnl_600mt_5622samples_1dim_0complexity'
p755
(lp756
(F8.881784197001252e-16
F0.40167860772561803
F0.1358020305633545
tp757
asS'kcipt_pnl_600mt_500samples_1dim_0complexity'
p758
(lp759
(F0.19659999999999467
F0.06870000000000094
F461.4824161529541
tp760
asS'kcipt_pnl_600mt_8783samples_1dim_0complexity'
p761
(lp762
(I-3
I-3
I-3
tp763
asS'kcipt_pnl_600mt_9878samples_1dim_0complexity'
p764
(lp765
(I-3
I-3
I-3
tp766
asS'nn_pnl_600mt_933samples_1dim_0complexity'
p767
(lp768
(g9
(g13
S'\xd7\x12\xf2A\xcff\xed?'
p769
tp770
Rp771
g9
(g13
S'\xbe\xc1\x17&S\x05\xed?'
p772
tp773
Rp774
F22.425947189331055
tp775
asS'chsic_pnl_600mt_1609samples_1dim_0complexity'
p776
(lp777
(F0.0
F0.316
F19.17099905014038
tp778
asS'chsic_pnl_600mt_6230samples_1dim_0complexity'
p779
(lp780
(F0.0
F0.802
F153.7646508216858
tp781
asS'kcipt_pnl_600mt_5500samples_1dim_0complexity'
p782
(lp783
(I-3
I-3
I-3
tp784
asS'kcipt_pnl_600mt_8540samples_1dim_0complexity'
p785
(lp786
(I-3
I-3
I-3
tp787
asS'cci_pnl_600mt_1973samples_1dim_0complexity'
p788
(lp789
(I0
I1
F65.35413599014282
tp790
asS'kcit_pnl_600mt_2338samples_1dim_0complexity'
p791
(lp792
(F0.0
F0.8762
F187.39758014678955
tp793
asS'nn_pnl_600mt_6716samples_1dim_0complexity'
p794
(lp795
(g9
(g13
S'\xc7\xba\xb8\x8d\x06\xf0\x86?'
p796
tp797
Rp798
g9
(g13
S'\x89A`\xe5\xd0"\xab?'
p799
tp800
Rp801
F23.631313800811768
tp802
asS'cci_pnl_600mt_200samples_1dim_0complexity'
p803
(lp804
(I0
I1
F0.7096788883209229
tp805
asS'kcit_pnl_600mt_966samples_1dim_0complexity'
p806
(lp807
(F0.0014
F0.3434
F58.14744305610657
tp808
asS'nn_pnl_600mt_566samples_1dim_0complexity'
p809
(lp810
(g9
(g13
S'\x7f\xd9=yX\xa8\xeb?'
p811
tp812
Rp813
g9
(g13
S'\xdfO\x8d\x97n\x12\xc3?'
p814
tp815
Rp816
F18.587774991989136
tp817
asS'chsic_pnl_600mt_3797samples_1dim_0complexity'
p818
(lp819
(F0.0
F0.634
F52.413735151290894
tp820
asS'kcipt_pnl_600mt_9027samples_1dim_0complexity'
p821
(lp822
(I-3
I-3
I-3
tp823
asS'nn_pnl_600mt_7932samples_1dim_0complexity'
p824
(lp825
(g9
(g13
S'-C\x1c\xeb\xe26*?'
p826
tp827
Rp828
g9
(g13
S'\xd0D\xd8\xf0\xf4J\x99?'
p829
tp830
Rp831
F36.14487910270691
tp832
asS'rcit_pnl_600mt_3797samples_1dim_0complexity'
p833
(lp834
(F7.771561172376096e-16
F0.6803842988181821
F0.0918428897857666
tp835
asS'kcipt_pnl_600mt_3189samples_1dim_0complexity'
p836
(lp837
(I-3
I-3
I-3
tp838
asS'rcit_pnl_600mt_1000samples_1dim_0complexity'
p839
(lp840
(F7.080202535370006e-09
F0.9200115246008853
F0.07040905952453613
tp841
asS'kcit_pnl_600mt_600samples_1dim_0complexity'
p842
(lp843
(F0.0
F0.7538
F19.07681703567505
tp844
asS'nn_pnl_600mt_2460samples_1dim_0complexity'
p845
(lp846
(g9
(g13
S'a2U0*\xa93?'
p847
tp848
Rp849
g9
(g13
S'O@\x13a\xc3\xd3\xeb?'
p850
tp851
Rp852
F39.17145085334778
tp853
asS'cci_pnl_600mt_3554samples_1dim_0complexity'
p854
(lp855
(I0
I0
F212.04093408584595
tp856
asS'nn_pnl_600mt_5257samples_1dim_0complexity'
p857
(lp858
(g9
(g13
S'a2U0*\xa93?'
p859
tp860
Rp861
g9
(g13
S'd;\xdfO\x8d\x97\xe6?'
p862
tp863
Rp864
F29.127830982208252
tp865
asS'kcit_pnl_600mt_1001samples_1dim_0complexity'
p866
(lp867
(F0.0022
F0.6982
F57.15067100524902
tp868
asS'chsic_pnl_600mt_466samples_1dim_0complexity'
p869
(lp870
(F0.0
F0.878
F8.053278923034668
tp871
asS'kcit_pnl_600mt_2460samples_1dim_0complexity'
p872
(lp873
(F0.0
F0.3384
F489.71097588539124
tp874
asS'chsic_pnl_600mt_1487samples_1dim_0complexity'
p875
(lp876
(F0.0
F0.954
F18.158567190170288
tp877
asS'nn_pnl_600mt_4527samples_1dim_0complexity'
p878
(lp879
(g9
(g13
S'-C\x1c\xeb\xe26\x1a?'
p880
tp881
Rp882
g9
(g13
S'yX\xa85\xcd;\xe8?'
p883
tp884
Rp885
F26.58009099960327
tp886
asS'cci_pnl_600mt_400samples_1dim_0complexity'
p887
(lp888
(I0
I0
F2.7604920864105225
tp889
asS'kcit_pnl_600mt_4527samples_1dim_0complexity'
p890
(lp891
(I-3
I-3
I-3
tp892
asS'chsic_pnl_600mt_5500samples_1dim_0complexity'
p893
(lp894
(F0.0
F0.672
F124.66399312019348
tp895
asS'kcipt_pnl_600mt_2338samples_1dim_0complexity'
p896
(lp897
(I-3
I-3
I-3
tp898
asS'kcit_pnl_600mt_6959samples_1dim_0complexity'
p899
(lp900
(I-3
I-3
I-3
tp901
asS'nn_pnl_600mt_466samples_1dim_0complexity'
p902
(lp903
(g9
(g13
S'\xd8\xf0\xf4JY\x86\xe4?'
p904
tp905
Rp906
g9
(g13
S'j\xbct\x93\x18\x04\xe8?'
p907
tp908
Rp909
F22.245632886886597
tp910
asS'chsic_pnl_600mt_300samples_1dim_0complexity'
p911
(lp912
(F0.0
F0.136
F4.040536880493164
tp913
asS'kcipt_pnl_600mt_7324samples_1dim_0complexity'
p914
(lp915
(I-3
I-3
I-3
tp916
asS'kcipt_pnl_600mt_800samples_1dim_0complexity'
p917
(lp918
(I-3
I-3
I-3
tp919
asS'chsic_pnl_600mt_9027samples_1dim_0complexity'
p920
(lp921
(F0.0
F0.136
F335.20261907577515
tp922
asS'kcit_pnl_600mt_5257samples_1dim_0complexity'
p923
(lp924
(I-3
I-3
I-3
tp925
asS'nn_pnl_600mt_2946samples_1dim_0complexity'
p926
(lp927
(g9
(g13
S'\x02\xbc\x05\x12\x14?\xb6?'
p928
tp929
Rp930
g9
(g13
S"e\xaa`TR'\xe4?"
p931
tp932
Rp933
F25.006139039993286
tp934
asS'chsic_pnl_600mt_1244samples_1dim_0complexity'
p935
(lp936
(F0.0
F0.505
F10.125871896743774
tp937
asS'kcit_pnl_600mt_9391samples_1dim_0complexity'
p938
(lp939
(I-3
I-3
I-3
tp940
asS'kcipt_pnl_600mt_200samples_1dim_0complexity'
p941
(lp942
(F0.0
F0.6354999999999463
F38.0569109916687
tp943
asS'nn_pnl_600mt_8419samples_1dim_0complexity'
p944
(lp945
(g9
(g13
S'-C\x1c\xeb\xe26*?'
p946
tp947
Rp948
g9
(g13
S'\xd74\xef8EG\xe8?'
p949
tp950
Rp951
F23.185363054275513
tp952
asS'kcipt_pnl_600mt_733samples_1dim_0complexity'
p953
(lp954
(I-3
I-3
I-3
tp955
asS'chsic_pnl_600mt_400samples_1dim_0complexity'
p956
(lp957
(F0.0
F0.24
F5.046130895614624
tp958
asS'nn_pnl_600mt_333samples_1dim_0complexity'
p959
(lp960
(g9
(g13
S'-C\x1c\xeb\xe26\x1a?'
p961
tp962
Rp963
g9
(g13
S'\xe3\xc7\x98\xbb\x96\x90\xbf?'
p964
tp965
Rp966
F24.52610206604004
tp967
asS'chsic_pnl_600mt_2703samples_1dim_0complexity'
p968
(lp969
(F0.0
F0.521
F29.28481101989746
tp970
asS'chsic_pnl_600mt_8662samples_1dim_0complexity'
p971
(lp972
(F0.0
F0.192
F303.1411030292511
tp973
asS'kcit_pnl_600mt_7932samples_1dim_0complexity'
p974
(lp975
(I-3
I-3
I-3
tp976
asS'rcit_pnl_600mt_8297samples_1dim_0complexity'
p977
(lp978
(F7.771561172376096e-16
F0.7923788967030208
F0.14371299743652344
tp979
asS'kcit_pnl_600mt_8419samples_1dim_0complexity'
p980
(lp981
(I-3
I-3
I-3
tp982
asS'nn_pnl_600mt_800samples_1dim_0complexity'
p983
(lp984
(g9
(g13
S'-C\x1c\xeb\xe26*?'
p985
tp986
Rp987
g9
(g13
S'\xb6\xf3\xfd\xd4x\xe9\xe6?'
p988
tp989
Rp990
F27.161967992782593
tp991
asS'nn_pnl_600mt_3068samples_1dim_0complexity'
p992
(lp993
(g9
(g13
S'-C\x1c\xeb\xe26*?'
p994
tp995
Rp996
g9
(g13
S'\x0bF%u\x02\x9a\xee?'
p997
tp998
Rp999
F46.98184585571289
tp1000
asS'rcit_pnl_600mt_7811samples_1dim_0complexity'
p1001
(lp1002
(F2.220446049250313e-16
F0.1540398904097754
F0.1256091594696045
tp1003
asS'chsic_pnl_600mt_8905samples_1dim_0complexity'
p1004
(lp1005
(F0.0
F0.893
F335.20129203796387
tp1006
asS'kcipt_pnl_600mt_5986samples_1dim_0complexity'
p1007
(lp1008
(I-3
I-3
I-3
tp1009
asS'cci_pnl_600mt_8662samples_1dim_0complexity'
p1010
(lp1011
(I-3
I-3
I-3
tp1012
asS'chsic_pnl_600mt_900samples_1dim_0complexity'
p1013
(lp1014
(F0.0
F0.02
F9.093554019927979
tp1015
asS'kcipt_pnl_600mt_7689samples_1dim_0complexity'
p1016
(lp1017
(I-3
I-3
I-3
tp1018
asS'kcipt_pnl_600mt_433samples_1dim_0complexity'
p1019
(lp1020
(F0.0323999999999999
F0.701799999999939
F296.3205831050873
tp1021
asS'kcipt_pnl_600mt_8297samples_1dim_0complexity'
p1022
(lp1023
(I-3
I-3
I-3
tp1024
asS'kcit_pnl_600mt_1487samples_1dim_0complexity'
p1025
(lp1026
(F0.0
F0.816
F120.28365302085876
tp1027
asS'nn_pnl_600mt_5622samples_1dim_0complexity'
p1028
(lp1029
(g9
(g13
S'a2U0*\xa93?'
p1030
tp1031
Rp1032
g9
(g13
S'y\xe9&1\x08\xac\xea?'
p1033
tp1034
Rp1035
F47.751224994659424
tp1036
asS'kcit_pnl_600mt_3919samples_1dim_0complexity'
p1037
(lp1038
(I-3
I-3
I-3
tp1039
asS'nn_pnl_600mt_1001samples_1dim_0complexity'
p1040
(lp1041
(g9
(g13
S'\xa5N@\x13a\xc3\xb3?'
p1042
tp1043
Rp1044
g9
(g13
S'\x04V\x0e-\xb2\x9d\xeb?'
p1045
tp1046
Rp1047
F22.29353904724121
tp1048
asS'cci_pnl_600mt_233samples_1dim_0complexity'
p1049
(lp1050
(I0
I0
F0.9394359588623047
tp1051
asS'cci_pnl_600mt_5014samples_1dim_0complexity'
p1052
(lp1053
(I0
I0
F424.092346906662
tp1054
asS'kcit_pnl_600mt_9635samples_1dim_0complexity'
p1055
(lp1056
(I-3
I-3
I-3
tp1057
asS'cci_pnl_600mt_300samples_1dim_0complexity'
p1058
(lp1059
(I0
I1
F1.49344801902771
tp1060
asS'cci_pnl_600mt_10000samples_1dim_0complexity'
p1061
(lp1062
(I-3
I-3
I-3
tp1063
asS'rcit_pnl_600mt_1487samples_1dim_0complexity'
p1064
(lp1065
(F1.7807449437245992e-07
F0.7876912581460381
F0.08368182182312012
tp1066
asS'chsic_pnl_600mt_8419samples_1dim_0complexity'
p1067
(lp1068
(F0.0
F0.459
F261.08521795272827
tp1069
asS'rcit_pnl_600mt_3919samples_1dim_0complexity'
p1070
(lp1071
(F0.0
F0.6096410003783171
F0.12008094787597656
tp1072
asS'nn_pnl_600mt_400samples_1dim_0complexity'
p1073
(lp1074
(g9
(g13
S'-C\x1c\xeb\xe26*?'
p1075
tp1076
Rp1077
g9
(g13
S'\x116<\xbdR\x96\xe5?'
p1078
tp1079
Rp1080
F22.361308813095093
tp1081
asS'kcit_pnl_600mt_866samples_1dim_0complexity'
p1082
(lp1083
(F0.0
F0.3646
F36.11988115310669
tp1084
asS'chsic_pnl_600mt_600samples_1dim_0complexity'
p1085
(lp1086
(F0.0
F0.843
F5.062536954879761
tp1087
asS'nn_pnl_600mt_7567samples_1dim_0complexity'
p1088
(lp1089
(g9
(g13
S'-C\x1c\xeb\xe26\x1a?'
p1090
tp1091
Rp1092
g9
(g13
S'\x07\xf0\x16HP\xfc\x98?'
p1093
tp1094
Rp1095
F24.015307903289795
tp1096
asS'nn_pnl_600mt_7324samples_1dim_0complexity'
p1097
(lp1098
(g9
(g13
S'a2U0*\xa93?'
p1099
tp1100
Rp1101
g9
(g13
S'X9\xb4\xc8v\xbe\xe7?'
p1102
tp1103
Rp1104
F26.119858026504517
tp1105
asS'kcipt_pnl_600mt_8662samples_1dim_0complexity'
p1106
(lp1107
(I-3
I-3
I-3
tp1108
asS'rcit_pnl_600mt_5014samples_1dim_0complexity'
p1109
(lp1110
(F1.785769641882151e-05
F0.4946397754761125
F0.11528587341308594
tp1111
asS'rcit_pnl_600mt_700samples_1dim_0complexity'
p1112
(lp1113
(F1.3409988303125786e-06
F0.5928432397248178
F0.06573987007141113
tp1114
asS'rcit_pnl_600mt_233samples_1dim_0complexity'
p1115
(lp1116
(F2.506492797349491e-05
F0.8929800398992198
F0.023254871368408203
tp1117
asS'nn_pnl_600mt_700samples_1dim_0complexity'
p1118
(lp1119
(g9
(g13
S'\x02\x9a\x08\x1b\x9e^\xeb?'
p1120
tp1121
Rp1122
g9
(g13
S'EGr\xf9\x0f\xe9\xb7?'
p1123
tp1124
Rp1125
F20.16166400909424
tp1126
asS'nn_pnl_600mt_2825samples_1dim_0complexity'
p1127
(lp1128
(g9
(g13
S'a2U0*\xa93?'
p1129
tp1130
Rp1131
g9
(g13
S'\xf4lV}\xae\xb6\xec?'
p1132
tp1133
Rp1134
F24.309382915496826
tp1135
asS'kcipt_pnl_600mt_3919samples_1dim_0complexity'
p1136
(lp1137
(I-3
I-3
I-3
tp1138
asS'cci_pnl_600mt_1244samples_1dim_0complexity'
p1139
(lp1140
(I0
I1
F25.926591873168945
tp1141
asS'rcit_pnl_600mt_8783samples_1dim_0complexity'
p1142
(lp1143
(F7.771561172376096e-16
F0.761517437450047
F0.15549588203430176
tp1144
asS'nn_pnl_600mt_3676samples_1dim_0complexity'
p1145
(lp1146
(g9
(g13
S'^K\xc8\x07=\x9b\x95?'
p1147
tp1148
Rp1149
g9
(g13
S'\xb0\x03\xe7\x8c(\xed\xc5?'
p1150
tp1151
Rp1152
F25.5936222076416
tp1153
asS'kcit_pnl_600mt_766samples_1dim_0complexity'
p1154
(lp1155
(F0.0
F0.8736
F27.098129987716675
tp1156
asS'chsic_pnl_600mt_4406samples_1dim_0complexity'
p1157
(lp1158
(F0.0
F0.831
F82.51738214492798
tp1159
asS'kcipt_pnl_600mt_700samples_1dim_0complexity'
p1160
(lp1161
(I-3
I-3
I-3
tp1162
asS'kcit_pnl_600mt_3311samples_1dim_0complexity'
p1163
(lp1164
(F0.0
F0.0014
F1075.3166000843048
tp1165
asS'rcit_pnl_600mt_5986samples_1dim_0complexity'
p1166
(lp1167
(F0.0
F0.5648338423824755
F0.13890886306762695
tp1168
asS'kcit_pnl_600mt_8054samples_1dim_0complexity'
p1169
(lp1170
(I-3
I-3
I-3
tp1171
asS'nn_pnl_600mt_3189samples_1dim_0complexity'
p1172
(lp1173
(g9
(g13
S'\x96\xb2\x0cq\xac\x8b\xef?'
p1174
tp1175
Rp1176
g9
(g13
S'D\x8bl\xe7\xfb\xa9\xeb?'
p1177
tp1178
Rp1179
F20.031527042388916
tp1180
asS'chsic_pnl_600mt_866samples_1dim_0complexity'
p1181
(lp1182
(F0.0
F0.214
F8.091377019882202
tp1183
asS'nn_pnl_600mt_9148samples_1dim_0complexity'
p1184
(lp1185
(g9
(g13
S'-C\x1c\xeb\xe26:?'
p1186
tp1187
Rp1188
g9
(g13
S'c\xeeZB>\xe8\xe7?'
p1189
tp1190
Rp1191
F35.14939999580383
tp1192
asS'nn_pnl_600mt_866samples_1dim_0complexity'
p1193
(lp1194
(g9
(g13
S'\x94\xf6\x06_\x98L\x85?'
p1195
tp1196
Rp1197
g9
(g13
S'\x97\x90\x0fz6\xab\xc6?'
p1198
tp1199
Rp1200
F20.006972074508667
tp1201
asS'kcit_pnl_600mt_7081samples_1dim_0complexity'
p1202
(lp1203
(I-3
I-3
I-3
tp1204
asS'chsic_pnl_600mt_4284samples_1dim_0complexity'
p1205
(lp1206
(F0.0
F0.741
F59.45724701881409
tp1207
asS'chsic_pnl_600mt_800samples_1dim_0complexity'
p1208
(lp1209
(F0.0
F0.758
F7.085379123687744
tp1210
asS'chsic_pnl_600mt_9756samples_1dim_0complexity'
p1211
(lp1212
(F0.0
F0.407
F540.4927070140839
tp1213
asS'cci_pnl_600mt_1852samples_1dim_0complexity'
p1214
(lp1215
(I0
I1
F57.56174397468567
tp1216
asS'kcipt_pnl_600mt_5014samples_1dim_0complexity'
p1217
(lp1218
(I-3
I-3
I-3
tp1219
asS'nn_pnl_600mt_5135samples_1dim_0complexity'
p1220
(lp1221
(g9
(g13
S'a2U0*\xa93?'
p1222
tp1223
Rp1224
g9
(g13
S'\xadi\xdeq\x8a\x8e\xc4?'
p1225
tp1226
Rp1227
F25.075021982192993
tp1228
asS'kcipt_pnl_600mt_2460samples_1dim_0complexity'
p1229
(lp1230
(I-3
I-3
I-3
tp1231
asS'rcit_pnl_600mt_4406samples_1dim_0complexity'
p1232
(lp1233
(F0.0
F0.7844534522500872
F0.1091148853302002
tp1234
asS'rcit_pnl_600mt_6230samples_1dim_0complexity'
p1235
(lp1236
(F0.0
F0.5677392574599098
F0.12505483627319336
tp1237
asS'nn_pnl_600mt_3797samples_1dim_0complexity'
p1238
(lp1239
(g9
(g13
S'-C\x1c\xeb\xe26:?'
p1240
tp1241
Rp1242
g9
(g13
S'\xb8@\x82\xe2\xc7\x98\xcb?'
p1243
tp1244
Rp1245
F25.855878829956055
tp1246
asS'rcit_pnl_600mt_900samples_1dim_0complexity'
p1247
(lp1248
(F0.0
F0.057272156315744116
F0.06991195678710938
tp1249
asS'cci_pnl_600mt_933samples_1dim_0complexity'
p1250
(lp1251
(I0
I0
F14.682431936264038
tp1252
asS'rcit_pnl_600mt_8419samples_1dim_0complexity'
p1253
(lp1254
(F6.661338147750939e-16
F0.5291664161580016
F0.14694905281066895
tp1255
asS'chsic_pnl_600mt_5257samples_1dim_0complexity'
p1256
(lp1257
(F0.0
F0.612
F89.60547208786011
tp1258
asS'nn_pnl_600mt_366samples_1dim_0complexity'
p1259
(lp1260
(g9
(g13
S'\xc5\x8f1w-!\x8f?'
p1261
tp1262
Rp1263
g9
(g13
S'\x81\x04\xc5\x8f1w\xed?'
p1264
tp1265
Rp1266
F19.30483078956604
tp1267
asS'chsic_pnl_600mt_433samples_1dim_0complexity'
p1268
(lp1269
(F0.037
F0.23
F4.046247959136963
tp1270
asS'kcipt_pnl_600mt_6230samples_1dim_0complexity'
p1271
(lp1272
(I-3
I-3
I-3
tp1273
asS'kcipt_pnl_600mt_1365samples_1dim_0complexity'
p1274
(lp1275
(I-3
I-3
I-3
tp1276
asS'cci_pnl_600mt_2703samples_1dim_0complexity'
p1277
(lp1278
(I0
I1
F122.34632301330566
tp1279
asS'chsic_pnl_600mt_8783samples_1dim_0complexity'
p1280
(lp1281
(F0.0
F0.621
F411.2696280479431
tp1282
asS'cci_pnl_600mt_8783samples_1dim_0complexity'
p1283
(lp1284
(I-3
I-3
I-3
tp1285
asS'kcipt_pnl_600mt_1609samples_1dim_0complexity'
p1286
(lp1287
(I-3
I-3
I-3
tp1288
asS'rcit_pnl_600mt_933samples_1dim_0complexity'
p1289
(lp1290
(F6.638265651615072e-06
F0.5533877863644888
F0.07287311553955078
tp1291
asS'rcit_pnl_600mt_5257samples_1dim_0complexity'
p1292
(lp1293
(F0.0
F0.4394326396029391
F0.11708211898803711
tp1294
asS'rcit_pnl_600mt_966samples_1dim_0complexity'
p1295
(lp1296
(F2.6237923300698185e-07
F0.5930813301354154
F0.05382585525512695
tp1297
asS'rcit_pnl_600mt_200samples_1dim_0complexity'
p1298
(lp1299
(F2.1159463070574702e-10
F0.8609832927396194
F0.09137296676635742
tp1300
asS'nn_pnl_600mt_4162samples_1dim_0complexity'
p1301
(lp1302
(g9
(g13
S'-C\x1c\xeb\xe26\x1a?'
p1303
tp1304
Rp1305
g9
(g13
S'\x14\xd0D\xd8\xf0\xf4\xc2?'
p1306
tp1307
Rp1308
F27.579215049743652
tp1309
asS'rcit_pnl_600mt_8054samples_1dim_0complexity'
p1310
(lp1311
(F6.661338147750939e-16
F0.24188872191224775
F0.14835095405578613
tp1312
asS'cci_pnl_600mt_566samples_1dim_0complexity'
p1313
(lp1314
(I1
I1
F5.413631916046143
tp1315
asS'nn_pnl_600mt_6351samples_1dim_0complexity'
p1316
(lp1317
(g9
(g13
S'-C\x1c\xeb\xe26\x1a?'
p1318
tp1319
Rp1320
g9
(g13
S'\xbc\x05\x12\x14?\xc6\xac?'
p1321
tp1322
Rp1323
F24.415441036224365
tp1324
asS'kcit_pnl_600mt_266samples_1dim_0complexity'
p1325
(lp1326
(F0.1578
F0.1822
F4.0316948890686035
tp1327
asS'kcipt_pnl_600mt_966samples_1dim_0complexity'
p1328
(lp1329
(I-3
I-3
I-3
tp1330
asS'cci_pnl_600mt_5622samples_1dim_0complexity'
p1331
(lp1332
(I0
I1
F525.8737471103668
tp1333
asS'cci_pnl_600mt_3433samples_1dim_0complexity'
p1334
(lp1335
(I0
I1
F198.1749608516693
tp1336
asS'kcit_pnl_600mt_566samples_1dim_0complexity'
p1337
(lp1338
(F0.0012
F0.0632
F16.070191144943237
tp1339
asS'chsic_pnl_600mt_7689samples_1dim_0complexity'
p1340
(lp1341
(F0.0
F0.05
F293.0119318962097
tp1342
asS'chsic_pnl_600mt_6473samples_1dim_0complexity'
p1343
(lp1344
(F0.0
F0.973
F165.79386496543884
tp1345
asS'chsic_pnl_600mt_5014samples_1dim_0complexity'
p1346
(lp1347
(F0.0
F0.851
F139.63052797317505
tp1348
asS'cci_pnl_600mt_466samples_1dim_0complexity'
p1349
(lp1350
(I0
I0
F3.661498785018921
tp1351
asS'kcipt_pnl_600mt_4162samples_1dim_0complexity'
p1352
(lp1353
(I-3
I-3
I-3
tp1354
asS'chsic_pnl_600mt_2217samples_1dim_0complexity'
p1355
(lp1356
(F0.0
F0.954
F29.241025924682617
tp1357
asS'nn_pnl_600mt_966samples_1dim_0complexity'
p1358
(lp1359
(g9
(g13
S'(\x0f\x0b\xb5\xa6y\xe7?'
p1360
tp1361
Rp1362
g9
(g13
S'HP\xfc\x18s\xd7\x82?'
p1363
tp1364
Rp1365
F24.71705985069275
tp1366
asS'cci_pnl_600mt_9635samples_1dim_0complexity'
p1367
(lp1368
(I-3
I-3
I-3
tp1369
asS'cci_pnl_600mt_3068samples_1dim_0complexity'
p1370
(lp1371
(I0
I1
F156.8664619922638
tp1372
asS'kcipt_pnl_600mt_8905samples_1dim_0complexity'
p1373
(lp1374
(I-3
I-3
I-3
tp1375
asS'kcit_pnl_600mt_8540samples_1dim_0complexity'
p1376
(lp1377
(I-3
I-3
I-3
tp1378
asS'kcipt_pnl_600mt_1000samples_1dim_0complexity'
p1379
(lp1380
(I-3
I-3
I-3
tp1381
asS'kcit_pnl_600mt_1365samples_1dim_0complexity'
p1382
(lp1383
(F0.0
F0.4212
F122.24330806732178
tp1384
asS'cci_pnl_600mt_7689samples_1dim_0complexity'
p1385
(lp1386
(I0
I1
F990.5407938957214
tp1387
asS'kcipt_pnl_600mt_5135samples_1dim_0complexity'
p1388
(lp1389
(I-3
I-3
I-3
tp1390
asS'kcit_pnl_600mt_333samples_1dim_0complexity'
p1391
(lp1392
(F0.0
F0.6688
F5.0371620655059814
tp1393
asS'kcit_pnl_600mt_3433samples_1dim_0complexity'
p1394
(lp1395
(F0.0
I-1
F822.0820460319519
tp1396
asS'cci_pnl_600mt_833samples_1dim_0complexity'
p1397
(lp1398
(I0
I0
F11.632200956344604
tp1399
asS'cci_pnl_600mt_2946samples_1dim_0complexity'
p1400
(lp1401
(I0
I0
F145.25854301452637
tp1402
asS'kcipt_pnl_600mt_6959samples_1dim_0complexity'
p1403
(lp1404
(I-3
I-3
I-3
tp1405
asS'nn_pnl_600mt_6594samples_1dim_0complexity'
p1406
(lp1407
(g9
(g13
S'-C\x1c\xeb\xe26\x1a?'
p1408
tp1409
Rp1410
g9
(g13
S'\xff\xb2{\xf2\xb0P\xe7?'
p1411
tp1412
Rp1413
F26.82240605354309
tp1414
asS'kcit_pnl_600mt_800samples_1dim_0complexity'
p1415
(lp1416
(F0.0
F0.4324
F29.132848978042603
tp1417
asS'chsic_pnl_600mt_6351samples_1dim_0complexity'
p1418
(lp1419
(F0.0
F0.737
F185.80893111228943
tp1420
asS'rcit_pnl_600mt_2217samples_1dim_0complexity'
p1421
(lp1422
(F0.0
F0.34477163728646176
F0.07911801338195801
tp1423
asS'kcipt_pnl_600mt_3433samples_1dim_0complexity'
p1424
(lp1425
(I-3
I-3
I-3
tp1426
asS'kcit_pnl_600mt_466samples_1dim_0complexity'
p1427
(lp1428
(F0.016
F0.1562
F7.052842140197754
tp1429
asS'kcipt_pnl_600mt_5257samples_1dim_0complexity'
p1430
(lp1431
(I-3
I-3
I-3
tp1432
asS'cci_pnl_600mt_2581samples_1dim_0complexity'
p1433
(lp1434
(I0
I0
F111.21025705337524
tp1435
asS'cci_pnl_600mt_8054samples_1dim_0complexity'
p1436
(lp1437
(I0
I1
F1087.968253850937
tp1438
asS'kcipt_pnl_600mt_4406samples_1dim_0complexity'
p1439
(lp1440
(I-3
I-3
I-3
tp1441
asS'chsic_pnl_600mt_6959samples_1dim_0complexity'
p1442
(lp1443
(F0.0
F0.694
F184.86412906646729
tp1444
asS'chsic_pnl_600mt_3433samples_1dim_0complexity'
p1445
(lp1446
(F0.0
F0.143
F38.36196708679199
tp1447
asS'nn_pnl_600mt_2217samples_1dim_0complexity'
p1448
(lp1449
(g9
(g13
S'a2U0*\xa93?'
p1450
tp1451
Rp1452
g9
(g13
S'C\x1c\xeb\xe26\x1a\xe4?'
p1453
tp1454
Rp1455
F21.427248001098633
tp1456
asS'rcit_pnl_600mt_8905samples_1dim_0complexity'
p1457
(lp1458
(F0.0
F0.51477384841966
F0.16264796257019043
tp1459
asS'cci_pnl_600mt_8905samples_1dim_0complexity'
p1460
(lp1461
(I-3
I-3
I-3
tp1462
asS'cci_pnl_600mt_633samples_1dim_0complexity'
p1463
(lp1464
(I0
I0
F6.79545783996582
tp1465
asS'nn_pnl_600mt_7689samples_1dim_0complexity'
p1466
(lp1467
(g9
(g13
S'\x00\x00\x00\x00\x00\x00\x00\x00'
p1468
tp1469
Rp1470
g9
(g13
S'\x9c\xa2#\xb9\xfc\x87\xe4?'
p1471
tp1472
Rp1473
F24.63645100593567
tp1474
asS'nn_pnl_600mt_2703samples_1dim_0complexity'
p1475
(lp1476
(g9
(g13
S'\xfc\xa9\xf1\xd2Mb@?'
p1477
tp1478
Rp1479
g9
(g13
S'\x8b\xfde\xf7\xe4a\xe5?'
p1480
tp1481
Rp1482
F22.90877604484558
tp1483
asS'kcit_pnl_600mt_9270samples_1dim_0complexity'
p1484
(lp1485
(I-3
I-3
I-3
tp1486
asS'nn_pnl_600mt_1730samples_1dim_0complexity'
p1487
(lp1488
(g9
(g13
S'\xde\x93\x87\x85Z\xd3\xac?'
p1489
tp1490
Rp1491
g9
(g13
S'\xf5JY\x868\xd6\xb5?'
p1492
tp1493
Rp1494
F22.98670506477356
tp1495
asS'kcit_pnl_600mt_9756samples_1dim_0complexity'
p1496
(lp1497
(I-3
I-3
I-3
tp1498
asS'cci_pnl_600mt_866samples_1dim_0complexity'
p1499
(lp1500
(I0
I0
F12.656514167785645
tp1501
asS'kcipt_pnl_600mt_8419samples_1dim_0complexity'
p1502
(lp1503
(I-3
I-3
I-3
tp1504
asS'kcipt_pnl_600mt_3554samples_1dim_0complexity'
p1505
(lp1506
(I-3
I-3
I-3
tp1507
asS'cci_pnl_600mt_3189samples_1dim_0complexity'
p1508
(lp1509
(I0
I0
F169.20828294754028
tp1510
asS'chsic_pnl_600mt_233samples_1dim_0complexity'
p1511
(lp1512
(F0.001
F0.328
F4.027271032333374
tp1513
asS'kcipt_pnl_600mt_9635samples_1dim_0complexity'
p1514
(lp1515
(I-3
I-3
I-3
tp1516
asS'nn_pnl_600mt_2095samples_1dim_0complexity'
p1517
(lp1518
(g9
(g13
S'a2U0*\xa93?'
p1519
tp1520
Rp1521
g9
(g13
S'\x91\xed|?5^\xe4?'
p1522
tp1523
Rp1524
F41.427831172943115
tp1525
asS'rcit_pnl_600mt_2581samples_1dim_0complexity'
p1526
(lp1527
(F3.3306690738754696e-16
F0.8972427048410918
F0.08237600326538086
tp1528
asS'kcipt_pnl_600mt_1730samples_1dim_0complexity'
p1529
(lp1530
(I-3
I-3
I-3
tp1531
asS'chsic_pnl_600mt_4041samples_1dim_0complexity'
p1532
(lp1533
(F0.0
F0.66
F53.46378803253174
tp1534
asS'cci_pnl_600mt_5743samples_1dim_0complexity'
p1535
(lp1536
(I0
I0
F551.8386619091034
tp1537
asS'cci_pnl_600mt_700samples_1dim_0complexity'
p1538
(lp1539
(I1
I1
F8.224551916122437
tp1540
asS'cci_pnl_600mt_6230samples_1dim_0complexity'
p1541
(lp1542
(I0
I0
F653.5439350605011
tp1543
asS'kcit_pnl_600mt_5743samples_1dim_0complexity'
p1544
(lp1545
(I-3
I-3
I-3
tp1546
asS'kcipt_pnl_600mt_1973samples_1dim_0complexity'
p1547
(lp1548
(I-3
I-3
I-3
tp1549
asS'cci_pnl_600mt_4527samples_1dim_0complexity'
p1550
(lp1551
(I0
I1
F342.4219789505005
tp1552
asS'chsic_pnl_600mt_500samples_1dim_0complexity'
p1553
(lp1554
(F0.0
F0.93
F5.054193019866943
tp1555
asS'nn_pnl_600mt_4892samples_1dim_0complexity'
p1556
(lp1557
(g9
(g13
S'-C\x1c\xeb\xe26\x1a?'
p1558
tp1559
Rp1560
g9
(g13
S'\xf2\xb0Pk\x9aw\xe4?'
p1561
tp1562
Rp1563
F39.90558409690857
tp1564
asS'cci_pnl_600mt_3797samples_1dim_0complexity'
p1565
(lp1566
(I0
I1
F241.9258689880371
tp1567
asS'chsic_pnl_600mt_7811samples_1dim_0complexity'
p1568
(lp1569
(F0.0
F0.373
F282.05238103866577
tp1570
asS'cci_pnl_600mt_600samples_1dim_0complexity'
p1571
(lp1572
(I0
I1
F6.024734973907471
tp1573
asS'chsic_pnl_600mt_6594samples_1dim_0complexity'
p1574
(lp1575
(F0.0
F0.934
F185.82531213760376
tp1576
asS'cci_pnl_600mt_9878samples_1dim_0complexity'
p1577
(lp1578
(I-3
I-3
I-3
tp1579
asS'chsic_pnl_600mt_933samples_1dim_0complexity'
p1580
(lp1581
(F0.0
F0.133
F9.098050117492676
tp1582
asS'kcit_pnl_600mt_633samples_1dim_0complexity'
p1583
(lp1584
(F0.002
F0.4024
F21.078781127929688
tp1585
asS'cci_pnl_600mt_1365samples_1dim_0complexity'
p1586
(lp1587
(I0
I0
F31.45125913619995
tp1588
asS'chsic_pnl_600mt_333samples_1dim_0complexity'
p1589
(lp1590
(F0.0
F0.926
F5.04223895072937
tp1591
asS'chsic_pnl_600mt_666samples_1dim_0complexity'
p1592
(lp1593
(F0.0
F0.613
F6.072970151901245
tp1594
asS'kcit_pnl_600mt_9027samples_1dim_0complexity'
p1595
(lp1596
(I-3
I-3
I-3
tp1597
asS'chsic_pnl_600mt_633samples_1dim_0complexity'
p1598
(lp1599
(F0.0
F0.306
F8.068850994110107
tp1600
asS'rcit_pnl_600mt_8540samples_1dim_0complexity'
p1601
(lp1602
(F1.1102230246251565e-16
F0.8554610366304645
F0.14803004264831543
tp1603
asS'kcipt_pnl_600mt_9391samples_1dim_0complexity'
p1604
(lp1605
(I-3
I-3
I-3
tp1606
asS'kcit_pnl_600mt_3797samples_1dim_0complexity'
p1607
(lp1608
(I-3
I-3
I-3
tp1609
asS'kcipt_pnl_600mt_233samples_1dim_0complexity'
p1610
(lp1611
(F0.7507999999999336
F0.1128000000000022
F51.069422006607056
tp1612
asS'cci_pnl_600mt_9391samples_1dim_0complexity'
p1613
(lp1614
(I-3
I-3
I-3
tp1615
asS'nn_pnl_600mt_833samples_1dim_0complexity'
p1616
(lp1617
(g9
(g13
S'\xfc\xa9\xf1\xd2Mb@?'
p1618
tp1619
Rp1620
g9
(g13
S'\xcc\x7fH\xbf}\x1d\xe8?'
p1621
tp1622
Rp1623
F21.615365982055664
tp1624
asS'rcit_pnl_600mt_9513samples_1dim_0complexity'
p1625
(lp1626
(F0.0
F0.9107653333170053
F0.16018891334533691
tp1627
asS'chsic_pnl_600mt_3311samples_1dim_0complexity'
p1628
(lp1629
(F0.0
F0.038
F56.395100116729736
tp1630
asS'chsic_pnl_600mt_533samples_1dim_0complexity'
p1631
(lp1632
(F0.0
F0.837
F6.058067083358765
tp1633
asS'rcit_pnl_600mt_300samples_1dim_0complexity'
p1634
(lp1635
(F6.185101319999831e-09
F0.3732979089323487
F0.04084491729736328
tp1636
asS'kcipt_pnl_600mt_6351samples_1dim_0complexity'
p1637
(lp1638
(I-3
I-3
I-3
tp1639
asS'kcit_pnl_600mt_733samples_1dim_0complexity'
p1640
(lp1641
(F0.0
F0.4824
F24.093131065368652
tp1642
asS'cci_pnl_600mt_5865samples_1dim_0complexity'
p1643
(lp1644
(I0
I0
F579.937285900116
tp1645
asS'kcipt_pnl_600mt_7567samples_1dim_0complexity'
p1646
(lp1647
(I-3
I-3
I-3
tp1648
asS'cci_pnl_600mt_666samples_1dim_0complexity'
p1649
(lp1650
(I0
I0
F7.512060880661011
tp1651
asS'cci_pnl_600mt_3919samples_1dim_0complexity'
p1652
(lp1653
(I0
I0
F258.50207686424255
tp1654
asS'chsic_pnl_600mt_1001samples_1dim_0complexity'
p1655
(lp1656
(F0.0
F0.488
F11.102244138717651
tp1657
asS'nn_pnl_600mt_8054samples_1dim_0complexity'
p1658
(lp1659
(g9
(g13
S'a2U0*\xa9C?'
p1660
tp1661
Rp1662
g9
(g13
S'=\n\xd7\xa3p=\xea?'
p1663
tp1664
Rp1665
F27.99235510826111
tp1666
asS'rcit_pnl_600mt_4284samples_1dim_0complexity'
p1667
(lp1668
(F2.220446049250313e-15
F0.5690999232181496
F0.0961599349975586
tp1669
asS'rcit_pnl_600mt_566samples_1dim_0complexity'
p1670
(lp1671
(F1.174596176900522e-05
F0.3774788040871483
F0.06271886825561523
tp1672
asS'kcipt_pnl_600mt_600samples_1dim_0complexity'
p1673
(lp1674
(F0.0
F0.946799999999912
F867.8970649242401
tp1675
asS'rcit_pnl_600mt_4041samples_1dim_0complexity'
p1676
(lp1677
(F0.0
F0.4560943130167848
F0.10802602767944336
tp1678
asS'kcipt_pnl_600mt_7203samples_1dim_0complexity'
p1679
(lp1680
(I-3
I-3
I-3
tp1681
asS'kcit_pnl_600mt_4284samples_1dim_0complexity'
p1682
(lp1683
(I-3
I-3
I-3
tp1684
asS'rcit_pnl_600mt_6351samples_1dim_0complexity'
p1685
(lp1686
(F0.0
F0.23321438182921794
F0.12767791748046875
tp1687
asS'kcit_pnl_600mt_5865samples_1dim_0complexity'
p1688
(lp1689
(I-3
I-3
I-3
tp1690
asS'chsic_pnl_600mt_766samples_1dim_0complexity'
p1691
(lp1692
(F0.0
F0.514
F7.080919027328491
tp1693
asS'chsic_pnl_600mt_3068samples_1dim_0complexity'
p1694
(lp1695
(F0.0
F0.657
F35.358566999435425
tp1696
asS'cci_pnl_600mt_433samples_1dim_0complexity'
p1697
(lp1698
(I0
I0
F3.192780017852783
tp1699
asS'rcit_pnl_600mt_2095samples_1dim_0complexity'
p1700
(lp1701
(F8.881784197001252e-16
F0.544545518185751
F0.07943606376647949
tp1702
asS'kcit_pnl_600mt_500samples_1dim_0complexity'
p1703
(lp1704
(F0.001
F0.9896
F10.057152032852173
tp1705
asS'chsic_pnl_600mt_5865samples_1dim_0complexity'
p1706
(lp1707
(F0.0
F0.298
F112.6940529346466
tp1708
asS'nn_pnl_600mt_733samples_1dim_0complexity'
p1709
(lp1710
(g9
(g13
S'-C\x1c\xeb\xe26*?'
p1711
tp1712
Rp1713
g9
(g13
S'\x97\xff\x90~\xfb:\xe8?'
p1714
tp1715
Rp1716
F30.11261510848999
tp1717
asS'kcit_pnl_600mt_4162samples_1dim_0complexity'
p1718
(lp1719
(I-3
I-3
I-3
tp1720
asS'chsic_pnl_600mt_5135samples_1dim_0complexity'
p1721
(lp1722
(F0.0
F0.764
F110.58394885063171
tp1723
asS'nn_pnl_600mt_1487samples_1dim_0complexity'
p1724
(lp1725
(g9
(g13
S'HP\xfc\x18s\xd7b?'
p1726
tp1727
Rp1728
g9
(g13
S'\x8euq\x1b\r\xe0\xe3?'
p1729
tp1730
Rp1731
F26.23692011833191
tp1732
asS'kcit_pnl_600mt_6473samples_1dim_0complexity'
p1733
(lp1734
(I-3
I-3
I-3
tp1735
asS'rcit_pnl_600mt_6716samples_1dim_0complexity'
p1736
(lp1737
(F3.3306690738754696e-16
F0.3337914091950913
F0.13019299507141113
tp1738
asS'rcit_pnl_600mt_7081samples_1dim_0complexity'
p1739
(lp1740
(F1.1102230246251565e-16
F0.3135577377298442
F0.1350259780883789
tp1741
asS'kcit_pnl_600mt_1000samples_1dim_0complexity'
p1742
(lp1743
(F0.0
F0.7566
F54.14783501625061
tp1744
asS'cci_pnl_600mt_6108samples_1dim_0complexity'
p1745
(lp1746
(I0
I0
F623.9971051216125
tp1747
asS'chsic_pnl_600mt_4162samples_1dim_0complexity'
p1748
(lp1749
(F0.0
F0.005
F92.48038005828857
tp1750
asS'rcit_pnl_600mt_733samples_1dim_0complexity'
p1751
(lp1752
(F4.9960036108132044e-15
F0.4657107294780739
F0.06309390068054199
tp1753
asS'kcipt_pnl_600mt_6108samples_1dim_0complexity'
p1754
(lp1755
(I-3
I-3
I-3
tp1756
asS'cci_pnl_600mt_6473samples_1dim_0complexity'
p1757
(lp1758
(I0
I0
F704.4141938686371
tp1759
asS'chsic_pnl_600mt_9513samples_1dim_0complexity'
p1760
(lp1761
(F0.0
F0.936
F562.4519910812378
tp1762
asS'rcit_pnl_600mt_1852samples_1dim_0complexity'
p1763
(lp1764
(F2.2014685941873502e-05
F0.45399721979305696
F0.09114789962768555
tp1765
asS'kcit_pnl_600mt_7324samples_1dim_0complexity'
p1766
(lp1767
(I-3
I-3
I-3
tp1768
asS'chsic_pnl_600mt_7932samples_1dim_0complexity'
p1769
(lp1770
(F0.0
F0.004
F239.99818587303162
tp1771
asS'kcit_pnl_600mt_366samples_1dim_0complexity'
p1772
(lp1773
(F0.0014
F0.6344
F7.0424418449401855
tp1774
asS'nn_pnl_600mt_7203samples_1dim_0complexity'
p1775
(lp1776
(g9
(g13
S'-C\x1c\xeb\xe26*?'
p1777
tp1778
Rp1779
g9
(g13
S'w\xbe\x9f\x1a/\xdd\xc4?'
p1780
tp1781
Rp1782
F39.187978982925415
tp1783
asS'chsic_pnl_600mt_5743samples_1dim_0complexity'
p1784
(lp1785
(F0.0
F0.15
F115.6818311214447
tp1786
asS'nn_pnl_600mt_5378samples_1dim_0complexity'
p1787
(lp1788
(g9
(g13
S'\x9f\xab\xad\xd8_v\xed?'
p1789
tp1790
Rp1791
g9
(g13
S'5\xef8EGr\xeb?'
p1792
tp1793
Rp1794
F21.15169906616211
tp1795
asS'kcipt_pnl_600mt_4649samples_1dim_0complexity'
p1796
(lp1797
(I-3
I-3
I-3
tp1798
asS'kcit_pnl_600mt_8905samples_1dim_0complexity'
p1799
(lp1800
(I-3
I-3
I-3
tp1801
asS'cci_pnl_600mt_266samples_1dim_0complexity'
p1802
(lp1803
(I0
I1
F1.266230821609497
tp1804
asS'chsic_pnl_600mt_1730samples_1dim_0complexity'
p1805
(lp1806
(F0.0
F0.023
F25.19003200531006
tp1807
asS'cci_pnl_600mt_4892samples_1dim_0complexity'
p1808
(lp1809
(I0
I0
F403.2492868900299
tp1810
asS'chsic_pnl_600mt_2095samples_1dim_0complexity'
p1811
(lp1812
(F0.0
F0.684
F32.22530198097229
tp1813
asS'cci_pnl_600mt_733samples_1dim_0complexity'
p1814
(lp1815
(I0
I1
F9.043646097183228
tp1816
asS'chsic_pnl_600mt_6108samples_1dim_0complexity'
p1817
(lp1818
(F0.0
F0.425
F115.71183204650879
tp1819
asS'chsic_pnl_600mt_2338samples_1dim_0complexity'
p1820
(lp1821
(F0.0
F0.901
F26.244749069213867
tp1822
asS'kcit_pnl_600mt_4649samples_1dim_0complexity'
p1823
(lp1824
(I-3
I-3
I-3
tp1825
asS'rcit_pnl_600mt_433samples_1dim_0complexity'
p1826
(lp1827
(F0.02465624620259521
F0.23686953890487827
F0.056070804595947266
tp1828
asS'cci_pnl_600mt_7811samples_1dim_0complexity'
p1829
(lp1830
(I0
I1
F1019.9818091392517
tp1831
asS'chsic_pnl_600mt_10000samples_1dim_0complexity'
p1832
(lp1833
(F0.0
F0.301
F412.3853061199188
tp1834
asS'cci_pnl_600mt_6351samples_1dim_0complexity'
p1835
(lp1836
(I0
I0
F676.0258378982544
tp1837
asS'kcipt_pnl_600mt_400samples_1dim_0complexity'
p1838
(lp1839
(F0.02729999999999989
F0.4541999999999663
F247.26724100112915
tp1840
asS'kcit_pnl_600mt_5135samples_1dim_0complexity'
p1841
(lp1842
(I-3
I-3
I-3
tp1843
asS'cci_pnl_600mt_800samples_1dim_0complexity'
p1844
(lp1845
(I0
I0
F10.753384113311768
tp1846
asS'cci_pnl_600mt_9513samples_1dim_0complexity'
p1847
(lp1848
(I-3
I-3
I-3
tp1849
asS'chsic_pnl_600mt_2581samples_1dim_0complexity'
p1850
(lp1851
(F0.0
F0.999
F29.302072048187256
tp1852
asS'kcit_pnl_600mt_433samples_1dim_0complexity'
p1853
(lp1854
(F0.0102
F0.2166
F11.052963018417358
tp1855
asS'rcit_pnl_600mt_7446samples_1dim_0complexity'
p1856
(lp1857
(F1.4950449422901357e-07
F0.6838282614701574
F0.13576889038085938
tp1858
asS'nn_pnl_600mt_6838samples_1dim_0complexity'
p1859
(lp1860
(g9
(g13
S'\x89\xd2\xde\xe0\x0b\x93\xeb?'
p1861
tp1862
Rp1863
g9
(g13
S'\x9e\xef\xa7\xc6K7\xd1?'
p1864
tp1865
Rp1866
F26.267428874969482
tp1867
asS'chsic_pnl_600mt_3189samples_1dim_0complexity'
p1868
(lp1869
(F0.0
F0.729
F38.33055806159973
tp1870
asS'nn_pnl_600mt_5865samples_1dim_0complexity'
p1871
(lp1872
(g9
(g13
S'-C\x1c\xeb\xe26:?'
p1873
tp1874
Rp1875
g9
(g13
S'$\x97\xff\x90~\xfb\xc2?'
p1876
tp1877
Rp1878
F29.4538791179657
tp1879
asS'rcit_pnl_600mt_5500samples_1dim_0complexity'
p1880
(lp1881
(F0.0
F0.546290643423873
F0.12067699432373047
tp1882
asS'chsic_pnl_600mt_8297samples_1dim_0complexity'
p1883
(lp1884
(F0.0
F0.48
F306.1007308959961
tp1885
asS'nn_pnl_600mt_4406samples_1dim_0complexity'
p1886
(lp1887
(g9
(g13
S'-C\x1c\xeb\xe26\x1a?'
p1888
tp1889
Rp1890
g9
(g13
S'\x9b\xe6\x1d\xa7\xe8H\xbe?'
p1891
tp1892
Rp1893
F29.426259994506836
tp1894
asS'kcipt_pnl_600mt_833samples_1dim_0complexity'
p1895
(lp1896
(I-3
I-3
I-3
tp1897
asS'kcipt_pnl_600mt_300samples_1dim_0complexity'
p1898
(lp1899
(F0.004199999999999998
F0.6782999999999416
F99.12614607810974
tp1900
asS'cci_pnl_600mt_2460samples_1dim_0complexity'
p1901
(lp1902
(I0
I1
F101.41383695602417
tp1903
asS'kcipt_pnl_600mt_5865samples_1dim_0complexity'
p1904
(lp1905
(I-3
I-3
I-3
tp1906
asS'chsic_pnl_600mt_1122samples_1dim_0complexity'
p1907
(lp1908
(F0.0
F0.453
F13.1251699924469
tp1909
asS'kcipt_pnl_600mt_9148samples_1dim_0complexity'
p1910
(lp1911
(I-3
I-3
I-3
tp1912
asS'cci_pnl_600mt_1001samples_1dim_0complexity'
p1913
(lp1914
(I0
I1
F16.96919012069702
tp1915
asS'kcit_pnl_600mt_5378samples_1dim_0complexity'
p1916
(lp1917
(I-3
I-3
I-3
tp1918
asS'cci_pnl_600mt_6959samples_1dim_0complexity'
p1919
(lp1920
(I0
I0
F809.666424036026
tp1921
asS'rcit_pnl_600mt_3068samples_1dim_0complexity'
p1922
(lp1923
(F4.440892098500626e-16
F0.7781572583997216
F0.10285305976867676
tp1924
asS'kcipt_pnl_600mt_8054samples_1dim_0complexity'
p1925
(lp1926
(I-3
I-3
I-3
tp1927
asS'nn_pnl_600mt_266samples_1dim_0complexity'
p1928
(lp1929
(g9
(g13
S'b\xa1\xd64\xef8\xeb?'
p1930
tp1931
Rp1932
g9
(g13
S']m\xc5\xfe\xb2{\xe6?'
p1933
tp1934
Rp1935
F18.67120885848999
tp1936
asS'nn_pnl_600mt_1122samples_1dim_0complexity'
p1937
(lp1938
(g9
(g13
S'\xc5\x8f1w-!_?'
p1939
tp1940
Rp1941
g9
(g13
S'@\x13a\xc3\xd3+\xeb?'
p1942
tp1943
Rp1944
F19.320223093032837
tp1945
asS'rcit_pnl_600mt_400samples_1dim_0complexity'
p1946
(lp1947
(F2.1992436161077933e-07
F0.4608023541533849
F0.03465700149536133
tp1948
asS'kcipt_pnl_600mt_6594samples_1dim_0complexity'
p1949
(lp1950
(I-3
I-3
I-3
tp1951
asS'nn_pnl_600mt_4649samples_1dim_0complexity'
p1952
(lp1953
(g9
(g13
S'-C\x1c\xeb\xe26\x1a?'
p1954
tp1955
Rp1956
g9
(g13
S'\x9f\xcd\xaa\xcf\xd5V\xe4?'
p1957
tp1958
Rp1959
F22.754350900650024
tp1960
asS'kcipt_pnl_600mt_3797samples_1dim_0complexity'
p1961
(lp1962
(I-3
I-3
I-3
tp1963
asS'rcit_pnl_600mt_6838samples_1dim_0complexity'
p1964
(lp1965
(F0.0
F0.429556449406317
F0.13386797904968262
tp1966
asS'rcit_pnl_600mt_9635samples_1dim_0complexity'
p1967
(lp1968
(F0.0
F0.6639449243698392
F0.17342686653137207
tp1969
asS'nn_pnl_600mt_8662samples_1dim_0complexity'
p1970
(lp1971
(g9
(g13
S'-C\x1c\xeb\xe26\x1a?'
p1972
tp1973
Rp1974
g9
(g13
S'\xa4p=\n\xd7\xa3\xea?'
p1975
tp1976
Rp1977
F29.89339303970337
tp1978
asS'cci_pnl_600mt_966samples_1dim_0complexity'
p1979
(lp1980
(I0
I1
F15.604535102844238
tp1981
asS'rcit_pnl_600mt_9756samples_1dim_0complexity'
p1982
(lp1983
(F9.850231741381776e-12
F0.45679784952510816
F0.1626129150390625
tp1984
asS'chsic_pnl_600mt_833samples_1dim_0complexity'
p1985
(lp1986
(F0.0
F0.015
F10.091139793395996
tp1987
asS'kcit_pnl_600mt_7811samples_1dim_0complexity'
p1988
(lp1989
(I-3
I-3
I-3
tp1990
asS'rcit_pnl_600mt_4162samples_1dim_0complexity'
p1991
(lp1992
(F3.885780586188048e-15
F0.023171146221656613
F0.10384392738342285
tp1993
asS'rcit_pnl_600mt_4892samples_1dim_0complexity'
p1994
(lp1995
(F0.0
F0.562357709938603
F0.10107612609863281
tp1996
asS'kcit_pnl_600mt_6716samples_1dim_0complexity'
p1997
(lp1998
(I-3
I-3
I-3
tp1999
asS'cci_pnl_600mt_5378samples_1dim_0complexity'
p2000
(lp2001
(I0
I0
F486.1458010673523
tp2002
asS'rcit_pnl_600mt_4527samples_1dim_0complexity'
p2003
(lp2004
(F0.0
F0.5673737742044103
F0.12030291557312012
tp2005
asS'kcit_pnl_600mt_8297samples_1dim_0complexity'
p2006
(lp2007
(I-3
I-3
I-3
tp2008
asS'cci_pnl_600mt_1609samples_1dim_0complexity'
p2009
(lp2010
(I0
I1
F43.56576585769653
tp2011
asS'nn_pnl_600mt_666samples_1dim_0complexity'
p2012
(lp2013
(g9
(g13
S'\x00\x00\x00\x00\x00\x00\x00\x00'
p2014
tp2015
Rp2016
g9
(g13
S'\x1e\x16jM\xf3\x8e\xef?'
p2017
tp2018
Rp2019
F25.380615949630737
tp2020
asS'kcit_pnl_600mt_7203samples_1dim_0complexity'
p2021
(lp2022
(I-3
I-3
I-3
tp2023
asS'kcit_pnl_600mt_6230samples_1dim_0complexity'
p2024
(lp2025
(I-3
I-3
I-3
tp2026
asS'cci_pnl_600mt_6716samples_1dim_0complexity'
p2027
(lp2028
(I0
I0
F759.8370711803436
tp2029
asS'kcipt_pnl_600mt_7932samples_1dim_0complexity'
p2030
(lp2031
(I-3
I-3
I-3
tp2032
asS'cci_pnl_600mt_8540samples_1dim_0complexity'
p2033
(lp2034
(I-1
I-1
F1200.042475938797
tp2035
asS'kcipt_pnl_600mt_1852samples_1dim_0complexity'
p2036
(lp2037
(I-3
I-3
I-3
tp2038
asS'cci_pnl_600mt_533samples_1dim_0complexity'
p2039
(lp2040
(I0
I1
F4.8935160636901855
tp2041
asS'rcit_pnl_600mt_2460samples_1dim_0complexity'
p2042
(lp2043
(F0.0
F0.08841926814988565
F0.09691810607910156
tp2044
asS'rcit_pnl_600mt_600samples_1dim_0complexity'
p2045
(lp2046
(F0.0
F0.822546275167013
F0.06518101692199707
tp2047
asS'cci_pnl_600mt_5986samples_1dim_0complexity'
p2048
(lp2049
(I0
I1
F595.4628739356995
tp2050
asS'kcipt_pnl_600mt_1244samples_1dim_0complexity'
p2051
(lp2052
(I-3
I-3
I-3
tp2053
asS'kcipt_pnl_600mt_2581samples_1dim_0complexity'
p2054
(lp2055
(I-3
I-3
I-3
tp2056
asS'kcipt_pnl_600mt_3676samples_1dim_0complexity'
p2057
(lp2058
(I-3
I-3
I-3
tp2059
asS'nn_pnl_600mt_7811samples_1dim_0complexity'
p2060
(lp2061
(g9
(g13
S'a2U0*\xa93?'
p2062
tp2063
Rp2064
g9
(g13
S'\xe1\x0b\x93\xa9\x82Q\xc9?'
p2065
tp2066
Rp2067
F27.058109045028687
tp2068
asS'cci_pnl_600mt_7081samples_1dim_0complexity'
p2069
(lp2070
(I0
I1
F839.3808400630951
tp2071
asS'chsic_pnl_600mt_266samples_1dim_0complexity'
p2072
(lp2073
(F0.041
F0.123
F4.0348100662231445
tp2074
asS'cci_pnl_600mt_6838samples_1dim_0complexity'
p2075
(lp2076
(I0
I0
F780.3799531459808
tp2077
asS'kcipt_pnl_600mt_933samples_1dim_0complexity'
p2078
(lp2079
(I-3
I-3
I-3
tp2080
asS'rcit_pnl_600mt_5865samples_1dim_0complexity'
p2081
(lp2082
(F0.0
F0.9147783577937849
F0.1210780143737793
tp2083
asS'rcit_pnl_600mt_1001samples_1dim_0complexity'
p2084
(lp2085
(F0.00038992405796023366
F0.43696363497232404
F0.06782412528991699
tp2086
asS'kcit_pnl_600mt_833samples_1dim_0complexity'
p2087
(lp2088
(F0.0
F0.0066
F34.11285400390625
tp2089
asS'cci_pnl_600mt_8175samples_1dim_0complexity'
p2090
(lp2091
(I0
I0
F1123.521780014038
tp2092
asS'nn_pnl_600mt_9635samples_1dim_0complexity'
p2093
(lp2094
(g9
(g13
S'\xae\xd8_vO\x1ev?'
p2095
tp2096
Rp2097
g9
(g13
S'\xd2o_\x07\xce\x19\xd1?'
p2098
tp2099
Rp2100
F28.560395002365112
tp2101
asS'chsic_pnl_600mt_9148samples_1dim_0complexity'
p2102
(lp2103
(F0.0
F0.533
F316.2067368030548
tp2104
asS'kcipt_pnl_600mt_2703samples_1dim_0complexity'
p2105
(lp2106
(I-3
I-3
I-3
tp2107
asS'rcit_pnl_600mt_9878samples_1dim_0complexity'
p2108
(lp2109
(F0.0
F0.21078702036052255
F0.17623519897460938
tp2110
asS'chsic_pnl_600mt_1365samples_1dim_0complexity'
p2111
(lp2112
(F0.0
F0.496
F17.144224166870117
tp2113
asS'nn_pnl_600mt_10000samples_1dim_0complexity'
p2114
(lp2115
(g9
(g13
S'\x00\x00\x00\x00\x00\x00\x00\x00'
p2116
tp2117
Rp2118
g9
(g13
S'\x18\x95\xd4\th"\xcc?'
p2119
tp2120
Rp2121
F36.177160024642944
tp2122
asS'kcipt_pnl_600mt_8175samples_1dim_0complexity'
p2123
(lp2124
(I-3
I-3
I-3
tp2125
asS'cci_pnl_600mt_7446samples_1dim_0complexity'
p2126
(lp2127
(I0
I0
F928.8906888961792
tp2128
asS'kcit_pnl_600mt_5986samples_1dim_0complexity'
p2129
(lp2130
(I-3
I-3
I-3
tp2131
asS'rcit_pnl_600mt_3676samples_1dim_0complexity'
p2132
(lp2133
(F4.107825191113079e-15
F0.31643472742144707
F0.09482598304748535
tp2134
asS'nn_pnl_600mt_3433samples_1dim_0complexity'
p2135
(lp2136
(g9
(g13
S'a2U0*\xa93?'
p2137
tp2138
Rp2139
g9
(g13
S'\x8c\xdbh\x00o\x81\xc4?'
p2140
tp2141
Rp2142
F23.86436891555786
tp2143
asS'cci_pnl_600mt_2095samples_1dim_0complexity'
p2144
(lp2145
(I0
I0
F74.32315707206726
tp2146
asS'nn_pnl_600mt_7081samples_1dim_0complexity'
p2147
(lp2148
(g9
(g13
S'\xdc\xd7\x81sF\x94\xb6?'
p2149
tp2150
Rp2151
g9
(g13
S'\xf9\xa0g\xb3\xeas\xed?'
p2152
tp2153
Rp2154
F27.380136013031006
tp2155
asS'chsic_pnl_600mt_966samples_1dim_0complexity'
p2156
(lp2157
(F0.0
F0.401
F13.10658597946167
tp2158
asS'kcipt_pnl_600mt_2217samples_1dim_0complexity'
p2159
(lp2160
(I-3
I-3
I-3
tp2161
asS'nn_pnl_600mt_6108samples_1dim_0complexity'
p2162
(lp2163
(g9
(g13
S'-C\x1c\xeb\xe26\x1a?'
p2164
tp2165
Rp2166
g9
(g13
S'\xc9\xe5?\xa4\xdf\xbe\xbe?'
p2167
tp2168
Rp2169
F21.7238130569458
tp2170
asS'chsic_pnl_600mt_7567samples_1dim_0complexity'
p2171
(lp2172
(F0.0
F0.305
F222.93749594688416
tp2173
asS'cci_pnl_600mt_4041samples_1dim_0complexity'
p2174
(lp2175
(I0
I0
F273.79313015937805
tp2176
asS'nn_pnl_600mt_8905samples_1dim_0complexity'
p2177
(lp2178
(g9
(g13
S'a2U0*\xa93?'
p2179
tp2180
Rp2181
g9
(g13
S'xz\xa5,C\x1c\xed?'
p2182
tp2183
Rp2184
F27.06437087059021
tp2185
asS'cci_pnl_600mt_2825samples_1dim_0complexity'
p2186
(lp2187
(I0
I0
F134.2573938369751
tp2188
asS'nn_pnl_600mt_9878samples_1dim_0complexity'
p2189
(lp2190
(g9
(g13
S'\xc7\xba\xb8\x8d\x06\xf0F?'
p2191
tp2192
Rp2193
g9
(g13
S'\xf4lV}\xae\xb6\xca?'
p2194
tp2195
Rp2196
F27.217166900634766
tp2197
asS'kcipt_pnl_600mt_1001samples_1dim_0complexity'
p2198
(lp2199
(I-3
I-3
I-3
tp2200
asS'nn_pnl_600mt_9027samples_1dim_0complexity'
p2201
(lp2202
(g9
(g13
S'\x00\x00\x00\x00\x00\x00\x00\x00'
p2203
tp2204
Rp2205
g9
(g13
S'\x1c\xeb\xe26\x1a\xc0\xab?'
p2206
tp2207
Rp2208
F23.260669946670532
tp2209
asS'rcit_pnl_600mt_2946samples_1dim_0complexity'
p2210
(lp2211
(F1.4239125237791583e-06
F0.5402508129459207
F0.09344601631164551
tp2212
asS'chsic_pnl_600mt_8540samples_1dim_0complexity'
p2213
(lp2214
(F0.0
F0.802
F407.2307300567627
tp2215
asS'rcit_pnl_600mt_466samples_1dim_0complexity'
p2216
(lp2217
(F0.000572590780017812
F0.4341534978274758
F0.05554008483886719
tp2218
asS'nn_pnl_600mt_300samples_1dim_0complexity'
p2219
(lp2220
(g9
(g13
S'a2U0*\xa9C?'
p2221
tp2222
Rp2223
g9
(g13
S'-C\x1c\xeb\xe26\xee?'
p2224
tp2225
Rp2226
F19.789685010910034
tp2227
asS'kcit_pnl_600mt_7689samples_1dim_0complexity'
p2228
(lp2229
(I-3
I-3
I-3
tp2230
asS'chsic_pnl_600mt_366samples_1dim_0complexity'
p2231
(lp2232
(F0.0
F0.642
F5.040894031524658
tp2233
asS'rcit_pnl_600mt_7203samples_1dim_0complexity'
p2234
(lp2235
(F0.0
F0.40418872825074137
F0.13609099388122559
tp2236
asS'kcit_pnl_600mt_10000samples_1dim_0complexity'
p2237
(lp2238
(I-3
I-3
I-3
tp2239
asS'nn_pnl_600mt_600samples_1dim_0complexity'
p2240
(lp2241
(g9
(g13
S'\xf2\xb0Pk\x9aw\x8c?'
p2242
tp2243
Rp2244
g9
(g13
S'\xca\xc3B\xadi\xde\xb1?'
p2245
tp2246
Rp2247
F21.72825598716736
tp2248
asS'kcit_pnl_600mt_7446samples_1dim_0complexity'
p2249
(lp2250
(I-3
I-3
I-3
tp2251
asS'kcit_pnl_600mt_2581samples_1dim_0complexity'
p2252
(lp2253
(F0.0
F0.9374
F414.6368799209595
tp2254
asS'kcit_pnl_600mt_9878samples_1dim_0complexity'
p2255
(lp2256
(I-3
I-3
I-3
tp2257
asS'kcipt_pnl_600mt_9270samples_1dim_0complexity'
p2258
(lp2259
(I-3
I-3
I-3
tp2260
asS'rcit_pnl_600mt_10000samples_1dim_0complexity'
p2261
(lp2262
(F2.220446049250313e-15
F0.07411306391046069
F0.16073107719421387
tp2263
asS'kcit_pnl_600mt_3189samples_1dim_0complexity'
p2264
(lp2265
(F0.0
F0.8028
F1028.26012301445
tp2266
asS'nn_pnl_600mt_1609samples_1dim_0complexity'
p2267
(lp2268
(g9
(g13
S'\x07_\x98L\x15\x8c\xe8?'
p2269
tp2270
Rp2271
g9
(g13
S'EGr\xf9\x0f\xe9\xb7?'
p2272
tp2273
Rp2274
F21.64140295982361
tp2275
asS'kcit_pnl_600mt_900samples_1dim_0complexity'
p2276
(lp2277
(F0.0
F0.0812
F31.117931127548218
tp2278
asS'rcit_pnl_600mt_866samples_1dim_0complexity'
p2279
(lp2280
(F1.2682077610293163e-12
F0.7193986961440343
F0.06493711471557617
tp2281
asS'nn_pnl_600mt_3554samples_1dim_0complexity'
p2282
(lp2283
(g9
(g13
S'\xd7\x12\xf2A\xcff\xb5?'
p2284
tp2285
Rp2286
g9
(g13
S'-C\x1c\xeb\xe26\x8a?'
p2287
tp2288
Rp2289
F25.954272031784058
tp2290
asS'kcipt_pnl_600mt_466samples_1dim_0complexity'
p2291
(lp2292
(F0.006400000000000004
F0.9035999999999168
F389.413743019104
tp2293
asS'cci_pnl_600mt_5257samples_1dim_0complexity'
p2294
(lp2295
(I0
I0
F462.70021295547485
tp2296
asS'cci_pnl_600mt_1487samples_1dim_0complexity'
p2297
(lp2298
(I0
I0
F37.51617908477783
tp2299
asS'kcipt_pnl_600mt_333samples_1dim_0complexity'
p2300
(lp2301
(F0.0
F0.8262999999999253
F137.1666760444641
tp2302
asS'cci_pnl_600mt_4406samples_1dim_0complexity'
p2303
(lp2304
(I0
I0
F324.58517503738403
tp2305
asS'nn_pnl_600mt_7446samples_1dim_0complexity'
p2306
(lp2307
(g9
(g13
S'\x9f<,\xd4\x9a\xe6\x9d?'
p2308
tp2309
Rp2310
g9
(g13
S'\x07\xf0\x16HP\xfc\x98?'
p2311
tp2312
Rp2313
F23.0070481300354
tp2314
asS'rcit_pnl_600mt_7567samples_1dim_0complexity'
p2315
(lp2316
(F2.886579864025407e-15
F0.5203447658647636
F0.15266013145446777
tp2317
asS'cci_pnl_600mt_8419samples_1dim_0complexity'
p2318
(lp2319
(I0
I0
F1187.62734913826
tp2320
asS'nn_pnl_600mt_8540samples_1dim_0complexity'
p2321
(lp2322
(g9
(g13
S'\x94\xf6\x06_\x98L\x85?'
p2323
tp2324
Rp2325
g9
(g13
S'Y\x868\xd6\xc5m\xe8?'
p2326
tp2327
Rp2328
F27.791434049606323
tp2329
asS'cci_pnl_600mt_4284samples_1dim_0complexity'
p2330
(lp2331
(I0
I0
F309.4206781387329
tp2332
asS'nn_pnl_600mt_4284samples_1dim_0complexity'
p2333
(lp2334
(g9
(g13
S'a2U0*\xa93?'
p2335
tp2336
Rp2337
g9
(g13
S'\xb6\x84|\xd0\xb3Y\xb5?'
p2338
tp2339
Rp2340
F25.125272035598755
tp2341
asS'nn_pnl_600mt_5500samples_1dim_0complexity'
p2342
(lp2343
(g9
(g13
S'-C\x1c\xeb\xe26*?'
p2344
tp2345
Rp2346
g9
(g13
S"R'\xa0\x89\xb0\xe1\xc1?"
p2347
tp2348
Rp2349
F28.322976112365723
tp2350
asS'rcit_pnl_600mt_533samples_1dim_0complexity'
p2351
(lp2352
(F0.00033299533390396263
F0.876771578879493
F0.08357787132263184
tp2353
asS'kcipt_pnl_600mt_5622samples_1dim_0complexity'
p2354
(lp2355
(I-3
I-3
I-3
tp2356
asS'cci_pnl_600mt_8297samples_1dim_0complexity'
p2357
(lp2358
(I0
I0
F1145.9020211696625
tp2359
asS'kcit_pnl_600mt_1973samples_1dim_0complexity'
p2360
(lp2361
(F0.0
F0.8486
F295.4580500125885
tp2362
asS'chsic_pnl_600mt_9391samples_1dim_0complexity'
p2363
(lp2364
(F0.0
F0.602
F370.27628803253174
tp2365
asS'rcit_pnl_600mt_9148samples_1dim_0complexity'
p2366
(lp2367
(F2.220446049250313e-16
F0.5391978416469903
F0.14925193786621094
tp2368
asS'chsic_pnl_600mt_8054samples_1dim_0complexity'
p2369
(lp2370
(F0.0
F0.558
F236.007581949234
tp2371
asS'nn_pnl_600mt_1244samples_1dim_0complexity'
p2372
(lp2373
(g9
(g13
S'-C\x1c\xeb\xe26*?'
p2374
tp2375
Rp2376
g9
(g13
S'n\xa3\x01\xbc\x05\x12\xe8?'
p2377
tp2378
Rp2379
F22.25187611579895
tp2380
asS'nn_pnl_600mt_3919samples_1dim_0complexity'
p2381
(lp2382
(g9
(g13
S'/n\xa3\x01\xbc\x05\xa2?'
p2383
tp2384
Rp2385
g9
(g13
S'\xb8\x1e\x85\xebQ\xb8\xe6?'
p2386
tp2387
Rp2388
F24.267602920532227
tp2389
asS'chsic_pnl_600mt_9878samples_1dim_0complexity'
p2390
(lp2391
(F0.0
F0.356
F387.3136079311371
tp2392
asS'chsic_pnl_600mt_3676samples_1dim_0complexity'
p2393
(lp2394
(F0.0
F0.588
F56.43279790878296
tp2395
asS'kcit_pnl_600mt_200samples_1dim_0complexity'
p2396
(lp2397
(F0.0
F0.8282
F4.031780004501343
tp2398
asS'nn_pnl_600mt_533samples_1dim_0complexity'
p2399
(lp2400
(g9
(g13
S'\xac\xad\xd8_vOn?'
p2401
tp2402
Rp2403
g9
(g13
S'[\xb1\xbf\xec\x9e<\xee?'
p2404
tp2405
Rp2406
F23.368499994277954
tp2407
asS'chsic_pnl_600mt_5622samples_1dim_0complexity'
p2408
(lp2409
(F0.0
F0.571
F117.67468905448914
tp2410
as.